
Atmel_project.elf:     file format elf32-avr

Sections:
Idx Name          Size      VMA       LMA       File off  Algn
  0 .data         0000004c  00800100  00006edc  00006f70  2**0
                  CONTENTS, ALLOC, LOAD, DATA
  1 .text         00006edc  00000000  00000000  00000094  2**1
                  CONTENTS, ALLOC, LOAD, READONLY, CODE
  2 .bss          000000ba  0080014c  0080014c  00006fbc  2**0
                  ALLOC
  3 .comment      00000030  00000000  00000000  00006fbc  2**0
                  CONTENTS, READONLY
  4 .note.gnu.avr.deviceinfo 00000040  00000000  00000000  00006fec  2**2
                  CONTENTS, READONLY
  5 .debug_aranges 000007d8  00000000  00000000  0000702c  2**0
                  CONTENTS, READONLY, DEBUGGING
  6 .debug_info   000102ed  00000000  00000000  00007804  2**0
                  CONTENTS, READONLY, DEBUGGING
  7 .debug_abbrev 00002066  00000000  00000000  00017af1  2**0
                  CONTENTS, READONLY, DEBUGGING
  8 .debug_line   00003ccd  00000000  00000000  00019b57  2**0
                  CONTENTS, READONLY, DEBUGGING
  9 .debug_frame  00001930  00000000  00000000  0001d824  2**2
                  CONTENTS, READONLY, DEBUGGING
 10 .debug_str    00003789  00000000  00000000  0001f154  2**0
                  CONTENTS, READONLY, DEBUGGING
 11 .debug_loc    0000a955  00000000  00000000  000228dd  2**0
                  CONTENTS, READONLY, DEBUGGING
 12 .debug_ranges 000008a0  00000000  00000000  0002d232  2**0
                  CONTENTS, READONLY, DEBUGGING

Disassembly of section .text:

00000000 <__vectors>:
       0:	0c 94 14 2c 	jmp	0x5828	; 0x5828 <__ctors_end>
       4:	0c 94 31 2c 	jmp	0x5862	; 0x5862 <__bad_interrupt>
       8:	0c 94 31 2c 	jmp	0x5862	; 0x5862 <__bad_interrupt>
       c:	0c 94 31 2c 	jmp	0x5862	; 0x5862 <__bad_interrupt>
      10:	0c 94 31 2c 	jmp	0x5862	; 0x5862 <__bad_interrupt>
      14:	0c 94 67 35 	jmp	0x6ace	; 0x6ace <__vector_5>
      18:	0c 94 31 2c 	jmp	0x5862	; 0x5862 <__bad_interrupt>
      1c:	0c 94 31 2c 	jmp	0x5862	; 0x5862 <__bad_interrupt>
      20:	0c 94 31 2c 	jmp	0x5862	; 0x5862 <__bad_interrupt>
      24:	0c 94 31 2c 	jmp	0x5862	; 0x5862 <__bad_interrupt>
      28:	0c 94 31 2c 	jmp	0x5862	; 0x5862 <__bad_interrupt>
      2c:	0c 94 31 2c 	jmp	0x5862	; 0x5862 <__bad_interrupt>
      30:	0c 94 31 2c 	jmp	0x5862	; 0x5862 <__bad_interrupt>
      34:	0c 94 31 2c 	jmp	0x5862	; 0x5862 <__bad_interrupt>
      38:	0c 94 31 2c 	jmp	0x5862	; 0x5862 <__bad_interrupt>
      3c:	0c 94 31 2c 	jmp	0x5862	; 0x5862 <__bad_interrupt>
      40:	0c 94 31 2c 	jmp	0x5862	; 0x5862 <__bad_interrupt>
      44:	0c 94 31 2c 	jmp	0x5862	; 0x5862 <__bad_interrupt>
      48:	0c 94 31 2c 	jmp	0x5862	; 0x5862 <__bad_interrupt>
      4c:	0c 94 31 2c 	jmp	0x5862	; 0x5862 <__bad_interrupt>
      50:	0c 94 31 2c 	jmp	0x5862	; 0x5862 <__bad_interrupt>
      54:	0c 94 31 2c 	jmp	0x5862	; 0x5862 <__bad_interrupt>
      58:	0c 94 31 2c 	jmp	0x5862	; 0x5862 <__bad_interrupt>
      5c:	0c 94 31 2c 	jmp	0x5862	; 0x5862 <__bad_interrupt>
      60:	0c 94 31 2c 	jmp	0x5862	; 0x5862 <__bad_interrupt>
      64:	0c 94 31 2c 	jmp	0x5862	; 0x5862 <__bad_interrupt>
      68:	b6 34       	cpi	r27, 0x46	; 70
      6a:	be 34       	cpi	r27, 0x4E	; 78
      6c:	d8 34       	cpi	r29, 0x48	; 72
      6e:	c8 34       	cpi	r28, 0x48	; 72
      70:	d8 34       	cpi	r29, 0x48	; 72
      72:	d8 34       	cpi	r29, 0x48	; 72
      74:	d8 34       	cpi	r29, 0x48	; 72
      76:	d8 34       	cpi	r29, 0x48	; 72
      78:	d8 34       	cpi	r29, 0x48	; 72
      7a:	d8 34       	cpi	r29, 0x48	; 72
      7c:	d8 34       	cpi	r29, 0x48	; 72
      7e:	d8 34       	cpi	r29, 0x48	; 72
      80:	d8 34       	cpi	r29, 0x48	; 72
      82:	d8 34       	cpi	r29, 0x48	; 72
      84:	d8 34       	cpi	r29, 0x48	; 72
      86:	d8 34       	cpi	r29, 0x48	; 72
      88:	d8 34       	cpi	r29, 0x48	; 72
      8a:	d8 34       	cpi	r29, 0x48	; 72
      8c:	d8 34       	cpi	r29, 0x48	; 72
      8e:	d8 34       	cpi	r29, 0x48	; 72
      90:	d8 34       	cpi	r29, 0x48	; 72
      92:	d8 34       	cpi	r29, 0x48	; 72
      94:	d8 34       	cpi	r29, 0x48	; 72
      96:	d8 34       	cpi	r29, 0x48	; 72
      98:	d8 34       	cpi	r29, 0x48	; 72
      9a:	d8 34       	cpi	r29, 0x48	; 72
      9c:	d8 34       	cpi	r29, 0x48	; 72
      9e:	d8 34       	cpi	r29, 0x48	; 72
      a0:	d8 34       	cpi	r29, 0x48	; 72
      a2:	d8 34       	cpi	r29, 0x48	; 72
      a4:	b0 34       	cpi	r27, 0x40	; 64
      a6:	d8 34       	cpi	r29, 0x48	; 72
      a8:	d8 34       	cpi	r29, 0x48	; 72
      aa:	d8 34       	cpi	r29, 0x48	; 72
      ac:	d8 34       	cpi	r29, 0x48	; 72
      ae:	d8 34       	cpi	r29, 0x48	; 72
      b0:	d8 34       	cpi	r29, 0x48	; 72
      b2:	d8 34       	cpi	r29, 0x48	; 72
      b4:	d8 34       	cpi	r29, 0x48	; 72
      b6:	a4 34       	cpi	r26, 0x44	; 68
      b8:	d8 34       	cpi	r29, 0x48	; 72
      ba:	d8 34       	cpi	r29, 0x48	; 72
      bc:	d8 34       	cpi	r29, 0x48	; 72
      be:	d8 34       	cpi	r29, 0x48	; 72
      c0:	d8 34       	cpi	r29, 0x48	; 72
      c2:	d8 34       	cpi	r29, 0x48	; 72
      c4:	d8 34       	cpi	r29, 0x48	; 72
      c6:	d8 34       	cpi	r29, 0x48	; 72
      c8:	d8 34       	cpi	r29, 0x48	; 72
      ca:	d8 34       	cpi	r29, 0x48	; 72
      cc:	ce 34       	cpi	r28, 0x4E	; 78
      ce:	d3 34       	cpi	r29, 0x43	; 67

000000d0 <__trampolines_end>:
      d0:	ff e0       	ldi	r31, 0x0F	; 15
      d2:	ff d1       	rcall	.+1022   	; 0x4d2 <__FUSE_REGION_LENGTH__+0xd2>
      d4:	af ff       	.word	0xffaf	; ????
      d6:	32 ff       	sbrs	r19, 2
      d8:	d0 ff       	sbrs	r29, 0
      da:	fe ff       	Address 0x000000da is out of bounds.
.word	0xffff	; ????

000000db <u8g_dev_ssd13xx_sleep_on>:
      db:	ff e0 ff d1 ae ff d0 ff fe                          .........

000000e4 <u8g_dev_ssd1306_128x64_data_start>:
      e4:	ff e0 ff d1 10 00 ff fe                             ........

000000ec <u8g_dev_ssd1306_128x64_adafruit2_init_seq>:
      ec:	ff d0 ff e0 ff c1 ff d1 ae d5 80 a8 3f d3 00 40     ............?..@
      fc:	8d 14 20 00 a1 c8 da 12 81 cf d9 f1 db 40 2e a4     .. ..........@..
     10c:	a6 af ff d0 ff fe                                   ......

00000112 <u8g_font_courB24>:
     112:	00 1e 2c f9 f5 14 05 39 0c 73 20 ff f9 1a f9 15     ..,....9.s .....
     122:	f9 00 00 00 14 00 01 05 15 15 14 07 00 70 f8 f8     .............p..
     132:	f8 f8 f8 70 70 70 70 70 70 70 70 70 20 00 00 70     ...ppppppppp ..p
     142:	f8 70 09 0a 14 14 05 0a e3 80 e3 80 e3 80 e3 80     .p..............
     152:	e3 80 e3 80 e3 80 e3 80 e3 80 41 00 0f 1a 34 14     ..........A...4.
     162:	02 fd 0e 38 0e 38 0e 38 0e 38 0e 38 0e 38 0e 38     ...8.8.8.8.8.8.8
     172:	0e 38 7f fe 7f fe 7f fe 1c 70 1c 70 1c 70 1c 70     .8.......p.p.p.p
     182:	ff fc ff fc ff fc 38 e0 38 e0 38 e0 38 e0 38 e0     ......8.8.8.8.8.
     192:	38 e0 38 e0 38 e0 0e 1b 36 14 03 fc 07 00 07 00     8.8.8...6.......
     1a2:	07 00 0f d8 3f f8 7f f8 f0 78 e0 38 e0 38 f0 00     ....?....x.8.8..
     1b2:	fe 00 7f c0 3f f0 07 f8 00 fc 00 3c e0 1c e0 1c     ....?......<....
     1c2:	f0 3c ff f8 ff f0 e7 80 07 00 07 00 07 00 07 00     .<..............
     1d2:	07 00 0f 15 2a 14 02 00 1f 00 3f 80 31 80 60 c0     ....*.....?.1.`.
     1e2:	60 c0 60 c0 71 c2 3f 8e 1f 3e 00 f8 03 e0 1f 00     `.`.q.?..>......
     1f2:	fc f8 f1 fc c3 8e 03 06 03 06 03 06 01 8c 01 fc     ................
     202:	00 f8 0e 12 24 14 02 00 07 a0 1f e0 3f e0 3c 60     ....$.......?.<`
     212:	38 00 38 00 3c 00 1c 00 1e 00 7f 3c 7f bc f3 bc     8.8.<......<....
     222:	e1 f0 e0 f0 e0 f0 ff fc 7f bc 3f 3c 04 0b 0b 14     ..........?<....
     232:	08 0a 70 70 70 70 70 e0 e0 e0 e0 e0 e0 07 1a 1a     ..ppppp.........
     242:	14 08 fb 0e 0e 1e 3c 38 38 78 70 70 f0 f0 f0 e0     ......<88xpp....
     252:	e0 f0 f0 f0 70 70 78 38 3c 1c 1e 0e 0e 07 1a 1a     ....ppx8<.......
     262:	14 04 fb e0 e0 f0 78 38 38 3c 1c 1c 1e 1e 1e 0e     ......x88<......
     272:	0e 1e 1e 1e 1c 1c 3c 38 78 70 f0 e0 e0 0f 0e 1c     ......<8xp......
     282:	14 03 07 03 80 03 80 03 80 03 80 63 8c fb be 7f     ...........c....
     292:	fc 1f f0 0f e0 0f e0 1e f0 3c 78 78 3c 30 18 11     .........<xx<0..
     2a2:	11 33 14 01 01 01 c0 00 01 c0 00 01 c0 00 01 c0     .3..............
     2b2:	00 01 c0 00 01 c0 00 01 c0 00 ff ff 80 ff ff 80     ................
     2c2:	ff ff 80 01 c0 00 01 c0 00 01 c0 00 01 c0 00 01     ................
     2d2:	c0 00 01 c0 00 01 c0 00 07 0a 0a 14 05 fb 1e 1e     ................
     2e2:	3c 3c 38 70 70 e0 e0 c0 0f 03 06 14 02 08 ff fe     <<8pp...........
     2f2:	ff fe ff fe 05 04 04 14 07 00 70 f8 f8 70 0d 1b     ..........p..p..
     302:	36 14 03 fc 00 38 00 38 00 78 00 70 00 70 00 e0     6....8.8.x.p.p..
     312:	00 e0 01 e0 01 c0 01 c0 03 80 03 80 07 80 07 00     ................
     322:	0f 00 0e 00 0e 00 1c 00 1c 00 3c 00 38 00 38 00     ..........<.8.8.
     332:	70 00 70 00 f0 00 e0 00 e0 00 0d 15 2a 14 03 00     p.p.........*...
     342:	0f 80 3f e0 7f f0 70 70 f0 78 e0 38 e0 38 e0 38     ..?...pp.x.8.8.8
     352:	e0 38 e0 38 e0 38 e0 38 e0 38 e0 38 e0 38 e0 38     .8.8.8.8.8.8.8.8
     362:	f0 78 70 70 7f f0 3f e0 0f 80 0d 15 2a 14 04 00     .xpp..?.....*...
     372:	03 00 0f 00 7f 00 ff 00 ff 00 67 00 07 00 07 00     ..........g.....
     382:	07 00 07 00 07 00 07 00 07 00 07 00 07 00 07 00     ................
     392:	07 00 07 00 ff f8 ff f8 ff f8 0e 15 2a 14 02 00     ............*...
     3a2:	07 c0 1f f0 3f f8 78 3c 70 1c 70 1c 70 1c 00 1c     ....?.x<p.p.p...
     3b2:	00 38 00 78 00 f0 01 e0 03 c0 07 80 0f 00 1e 00     .8.x............
     3c2:	3c 00 78 00 ff fc ff fc ff fc 0f 15 2a 14 02 00     <.x.........*...
     3d2:	07 e0 1f f0 7f f8 78 3c 70 1c 00 1c 00 1c 00 3c     ......x<p......<
     3e2:	07 f8 07 f0 07 f8 00 7c 00 1c 00 0e 00 0e 00 0e     .......|........
     3f2:	00 1e e0 3c ff fc ff f8 3f e0 0e 15 2a 14 02 00     ...<....?...*...
     402:	00 f0 01 f0 01 f0 03 f0 07 f0 07 70 0f 70 0e 70     ...........p.p.p
     412:	1e 70 1c 70 38 70 78 70 70 70 ff fc ff fc ff fc     .p.p8pxppp......
     422:	00 70 00 70 03 fc 03 fc 03 fc 0f 15 2a 14 02 00     .p.p........*...
     432:	3f fc 3f fc 3f fc 38 00 38 00 38 00 38 00 3f e0     ?.?.?.8.8.8.8.?.
     442:	3f f8 3f fc 38 7c 00 1e 00 0e 00 0e 00 0e 00 0e     ?.?.8|..........
     452:	40 1e f0 3c ff f8 7f f8 1f e0 0e 15 2a 14 03 00     @..<........*...
     462:	01 f8 07 f8 0f f8 1f 00 3c 00 78 00 70 00 70 00     ........<.x.p.p.
     472:	e3 c0 ef f0 ff f0 f8 78 f0 3c e0 1c e0 1c f0 1c     .......x.<......
     482:	70 3c 78 78 7f f8 3f f0 0f c0 0e 15 2a 14 02 00     p<xx..?.....*...
     492:	ff fc ff fc ff fc e0 3c e0 38 e0 38 00 38 00 78     .......<.8.8.8.x
     4a2:	00 70 00 70 00 f0 00 e0 00 e0 01 e0 01 c0 01 c0     .p.p............
     4b2:	03 c0 03 80 07 80 07 00 07 00 0e 15 2a 14 03 00     ............*...
     4c2:	0f 80 3f e0 7f f0 70 70 e0 38 e0 38 e0 38 70 70     ..?...pp.8.8.8pp
     4d2:	7f f0 3f e0 3f f0 7c f8 f0 3c e0 1c e0 1c e0 1c     ..?.?.|..<......
     4e2:	e0 1c f8 7c 7f f8 3f f0 0f c0 0e 15 2a 14 03 00     ...|..?.....*...
     4f2:	0f 80 3f e0 7f f0 78 f0 f0 78 e0 38 e0 3c e0 3c     ..?...x..x.8.<.<
     502:	e0 3c f0 7c 78 fc 3f dc 3f 9c 0f 3c 00 38 00 78     .<.|x.?.?..<.8.x
     512:	00 70 61 f0 ff e0 ff 80 7e 00 05 0f 0f 14 07 00     .pa.....~.......
     522:	70 f8 f8 70 00 00 00 00 00 00 00 70 f8 f8 70 08     p..p.......p..p.
     532:	13 13 14 05 fc 0e 1f 1f 0e 00 00 00 00 00 00 1e     ................
     542:	1e 3c 38 78 70 e0 e0 c0 12 13 39 14 00 00 00 01     .<8xp.....9.....
     552:	c0 00 03 c0 00 0f c0 00 3f 80 00 fe 00 01 f8 00     ........?.......
     562:	07 e0 00 1f 80 00 7f 00 00 fc 00 00 7f 00 00 1f     ................
     572:	80 00 07 e0 00 01 f8 00 00 fe 00 00 3f 80 00 0f     ............?...
     582:	c0 00 03 c0 00 01 c0 11 09 1b 14 01 05 ff ff 80     ................
     592:	ff ff 80 ff ff 80 00 00 00 00 00 00 00 00 00 ff     ................
     5a2:	ff 80 ff ff 80 ff ff 80 12 13 39 14 01 00 e0 00     ..........9.....
     5b2:	00 f0 00 00 fc 00 00 7f 00 00 1f c0 00 07 e0 00     ................
     5c2:	01 f8 00 00 7e 00 00 3f 80 00 0f c0 00 3f 80 00     ....~..?.....?..
     5d2:	7e 00 01 f8 00 07 e0 00 1f c0 00 7f 00 00 fc 00     ~...............
     5e2:	00 f0 00 00 e0 00 00 0d 14 28 14 03 00 1f c0 7f     .........(......
     5f2:	e0 ff f0 e0 f8 e0 38 e0 38 00 38 00 78 00 f0 03     ......8.8.8.x...
     602:	f0 07 c0 07 80 07 00 07 00 00 00 00 00 00 00 07     ................
     612:	00 0f 80 07 00 0e 17 2e 14 03 fe 0f c0 1f e0 38     ...............8
     622:	70 70 30 60 30 e0 30 c0 30 c1 f0 c7 f0 c6 30 cc     pp0`0.0.0.....0.
     632:	30 cc 30 cc 30 ce 30 c7 fc c3 bc c0 00 e0 00 60     0.0.0.0........`
     642:	00 70 30 38 70 1f e0 0f c0 15 14 3c 14 ff 00 1f     .p08p......<....
     652:	f0 00 1f f8 00 1f f8 00 01 dc 00 01 dc 00 01 dc     ................
     662:	00 03 8e 00 03 8e 00 03 8e 00 07 07 00 07 07 00     ................
     672:	07 07 00 0f ff 80 0f ff 80 1f ff c0 1c 01 c0 1c     ................
     682:	01 c0 ff 8f f8 ff 8f f8 ff 8f f8 12 14 3c 14 01     .............<..
     692:	00 ff f8 00 ff fe 00 ff ff 00 1c 07 80 1c 03 80     ................
     6a2:	1c 03 80 1c 03 80 1c 07 80 1f ff 00 1f fc 00 1f     ................
     6b2:	fe 00 1c 0f 80 1c 03 c0 1c 01 c0 1c 01 c0 1c 01     ................
     6c2:	c0 1c 03 c0 ff ff 80 ff ff 00 ff fc 00 12 14 3c     ...............<
     6d2:	14 01 00 03 f9 80 0f ff 80 1f ff 80 3e 0f 80 78     ............>..x
     6e2:	07 80 70 03 80 f0 03 80 e0 00 00 e0 00 00 e0 00     ..p.............
     6f2:	00 e0 00 00 e0 00 00 e0 00 00 e0 00 00 f0 00 00     ................
     702:	78 03 80 7c 07 c0 3f ff 80 1f ff 00 07 fc 00 11     x..|..?.........
     712:	14 3c 14 01 00 ff e0 00 ff f8 00 ff fc 00 38 3e     .<............8>
     722:	00 38 0f 00 38 07 00 38 07 80 38 03 80 38 03 80     .8..8..8..8..8..
     732:	38 03 80 38 03 80 38 03 80 38 03 80 38 03 80 38     8..8..8..8..8..8
     742:	07 80 38 07 00 38 1f 00 ff fe 00 ff fc 00 ff f0     ..8..8..........
     752:	00 11 14 3c 14 01 00 ff ff 00 ff ff 00 ff ff 00     ...<............
     762:	1c 07 00 1c 07 00 1c 07 00 1c 77 00 1c 70 00 1f     ..........w..p..
     772:	f0 00 1f f0 00 1f f0 00 1c 70 00 1c 70 00 1c 03     .........p..p...
     782:	80 1c 03 80 1c 03 80 1c 03 80 ff ff 80 ff ff 80     ................
     792:	ff ff 80 11 14 3c 14 01 00 ff ff 80 ff ff 80 ff     .....<..........
     7a2:	ff 80 1c 03 80 1c 03 80 1c 03 80 1c 73 80 1c 70     ............s..p
     7b2:	00 1f f0 00 1f f0 00 1f f0 00 1c 70 00 1c 70 00     ...........p..p.
     7c2:	1c 00 00 1c 00 00 1c 00 00 1c 00 00 ff e0 00 ff     ................
     7d2:	e0 00 ff e0 00 11 14 3c 14 02 00 03 f3 00 0f ff     .......<........
     7e2:	00 1f ff 00 3c 0f 00 78 07 00 70 07 00 f0 07 00     ....<..x..p.....
     7f2:	e0 00 00 e0 00 00 e0 00 00 e0 00 00 e0 ff 80 e0     ................
     802:	ff 80 e0 ff 80 f0 07 00 70 07 00 7c 0f 00 3f ff     ........p..|..?.
     812:	00 1f fe 00 07 f8 00 11 14 3c 14 01 00 ff 7f 80     .........<......
     822:	ff 7f 80 ff 7f 80 38 0e 00 38 0e 00 38 0e 00 38     ......8..8..8..8
     832:	0e 00 38 0e 00 3f fe 00 3f fe 00 3f fe 00 38 0e     ..8..?..?..?..8.
     842:	00 38 0e 00 38 0e 00 38 0e 00 38 0e 00 38 0e 00     .8..8..8..8..8..
     852:	ff 7f 80 ff 7f 80 ff 7f 80 0d 14 28 14 03 00 ff     ...........(....
     862:	f8 ff f8 ff f8 07 00 07 00 07 00 07 00 07 00 07     ................
     872:	00 07 00 07 00 07 00 07 00 07 00 07 00 07 00 07     ................
     882:	00 ff f8 ff f8 ff f8 11 14 3c 14 02 00 07 ff 80     .........<......
     892:	07 ff 80 07 ff 80 00 38 00 00 38 00 00 38 00 00     .......8..8..8..
     8a2:	38 00 00 38 00 00 38 00 00 38 00 e0 38 00 e0 38     8..8..8..8..8..8
     8b2:	00 e0 38 00 e0 38 00 e0 38 00 e0 78 00 f0 f0 00     ..8..8..8..x....
     8c2:	ff f0 00 7f e0 00 1f 80 00 13 14 3c 14 01 00 ff     ...........<....
     8d2:	9f c0 ff 9f c0 ff 9f c0 1c 0f 00 1c 1e 00 1c 3c     ...............<
     8e2:	00 1c 78 00 1c f0 00 1f e0 00 1f f0 00 1f f8 00     ..x.............
     8f2:	1e 7c 00 1c 3c 00 1c 1e 00 1c 0e 00 1c 0f 00 1c     .|..<...........
     902:	07 00 ff 87 e0 ff 87 e0 ff 87 e0 11 14 3c 14 01     .............<..
     912:	00 ff e0 00 ff e0 00 ff e0 00 0e 00 00 0e 00 00     ................
     922:	0e 00 00 0e 00 00 0e 00 00 0e 00 00 0e 00 00 0e     ................
     932:	00 00 0e 03 80 0e 03 80 0e 03 80 0e 03 80 0e 03     ................
     942:	80 0e 03 80 ff ff 80 ff ff 80 ff ff 80 15 14 3c     ...............<
     952:	14 ff 00 fc 01 f8 fc 01 f8 fe 03 f8 3e 03 e0 3f     ............>..?
     962:	07 e0 3f 07 e0 3b 8e e0 3b 8e e0 3b de e0 39 dc     ..?..;..;..;..9.
     972:	e0 39 dc e0 38 f8 e0 38 f8 e0 38 f8 e0 38 70 e0     .9..8..8..8..8p.
     982:	38 70 e0 38 00 e0 ff 07 f8 ff 07 f8 ff 07 f8 13     8p.8............
     992:	14 3c 14 00 00 f8 1f e0 fc 1f e0 fe 1f e0 3e 03     .<............>.
     9a2:	80 3f 03 80 3f 03 80 3b 83 80 3b c3 80 39 c3 80     .?..?..;..;..9..
     9b2:	39 e3 80 38 f3 80 38 73 80 38 7b 80 38 3b 80 38     9..8..8s.8{.8;.8
     9c2:	1f 80 38 1f 80 38 0f 80 ff 07 80 ff 07 80 ff 03     ..8..8..........
     9d2:	80 12 14 3c 14 01 00 03 f0 00 0f fc 00 1f fe 00     ...<............
     9e2:	3c 0f 00 78 07 80 70 03 80 f0 03 c0 e0 01 c0 e0     <..x..p.........
     9f2:	01 c0 e0 01 c0 e0 01 c0 e0 01 c0 e0 01 c0 f0 03     ................
     a02:	c0 70 03 80 78 07 80 3c 0f 00 1f fe 00 0f fc 00     .p..x..<........
     a12:	03 f0 00 11 14 3c 14 01 00 ff f8 00 ff fe 00 ff     .....<..........
     a22:	ff 00 1c 0f 00 1c 03 80 1c 03 80 1c 03 80 1c 03     ................
     a32:	80 1c 07 80 1c 0f 00 1f fe 00 1f fc 00 1f f0 00     ................
     a42:	1c 00 00 1c 00 00 1c 00 00 1c 00 00 ff e0 00 ff     ................
     a52:	e0 00 ff e0 00 12 19 4b 14 01 fb 03 f0 00 0f f8     .......K........
     a62:	00 1f fe 00 3c 0f 00 78 07 80 70 03 80 f0 03 c0     ....<..x..p.....
     a72:	e0 01 c0 e0 01 c0 e0 01 c0 e0 01 c0 e0 01 c0 e0     ................
     a82:	01 c0 e0 01 c0 70 03 80 78 07 80 3c 0f 00 1f fe     .....p..x..<....
     a92:	00 0f fc 00 07 f0 00 0e 00 00 1f e1 c0 3f ff c0     .............?..
     aa2:	3f ff c0 38 3f 00 14 14 3c 14 01 00 ff f8 00 ff     ?..8?...<.......
     ab2:	fe 00 ff ff 00 1c 0f 00 1c 07 80 1c 03 80 1c 03     ................
     ac2:	80 1c 07 80 1c 0f 00 1f fe 00 1f fc 00 1f f8 00     ................
     ad2:	1c 3c 00 1c 1e 00 1c 0f 00 1c 07 80 1c 03 c0 ff     .<..............
     ae2:	83 f0 ff 81 f0 ff 81 f0 0f 14 28 14 02 00 0f cc     ..........(.....
     af2:	3f fc 7f fc f0 7c e0 1c e0 1c f0 1c f8 00 7f 00     ?....|..........
     b02:	3f e0 0f f8 01 fc 00 3e e0 1e e0 0e e0 0e f0 1e     ?......>........
     b12:	ff fc ff f8 e7 e0 11 14 3c 14 01 00 ff ff 80 ff     ........<.......
     b22:	ff 80 ff ff 80 e1 c3 80 e1 c3 80 e1 c3 80 e1 c3     ................
     b32:	80 e1 c3 80 e1 c3 80 01 c0 00 01 c0 00 01 c0 00     ................
     b42:	01 c0 00 01 c0 00 01 c0 00 01 c0 00 01 c0 00 3f     ...............?
     b52:	fe 00 3f fe 00 3f fe 00 13 14 3c 14 00 00 ff 1f     ..?..?....<.....
     b62:	e0 ff 1f e0 ff 1f e0 38 03 80 38 03 80 38 03 80     .......8..8..8..
     b72:	38 03 80 38 03 80 38 03 80 38 03 80 38 03 80 38     8..8..8..8..8..8
     b82:	03 80 38 03 80 38 03 80 38 03 80 1c 07 00 1f 1f     ..8..8..8.......
     b92:	00 0f fe 00 07 fc 00 01 f0 00 15 14 3c 14 ff 00     ............<...
     ba2:	ff 8f f8 ff 8f f8 ff 8f f8 1c 01 c0 1c 01 c0 1e     ................
     bb2:	03 c0 0e 03 80 0e 03 80 07 07 00 07 07 00 07 8f     ................
     bc2:	00 03 8e 00 03 8e 00 03 de 00 01 dc 00 01 dc 00     ................
     bd2:	00 f8 00 00 f8 00 00 f8 00 00 70 00 13 14 3c 14     ..........p...<.
     be2:	00 00 ff 1f e0 ff 1f e0 ff 1f e0 70 01 c0 70 01     ...........p..p.
     bf2:	c0 70 e1 c0 70 e1 c0 71 f1 c0 39 f3 80 39 f3 80     .p..p..q..9..9..
     c02:	3b bb 80 3b bb 80 3b bb 80 3f 1f 80 3f 1f 80 1e     ;..;..;..?..?...
     c12:	0f 00 1e 0f 00 1e 0f 00 1c 07 00 1c 07 00 13 14     ................
     c22:	3c 14 00 00 ff 1f e0 ff 1f e0 ff 1f e0 3c 07 80     <............<..
     c32:	1e 0f 00 0f 1e 00 07 bc 00 03 f8 00 01 f0 00 00     ................
     c42:	e0 00 01 f0 00 03 f8 00 07 bc 00 0f 1e 00 0e 0e     ................
     c52:	00 1e 0f 00 3c 07 80 ff 1f e0 ff 1f e0 ff 1f e0     ....<...........
     c62:	13 14 3c 14 00 00 ff 1f e0 ff 1f e0 ff 1f e0 3c     ..<............<
     c72:	07 80 0e 0e 00 0f 1e 00 07 1c 00 07 bc 00 03 f8     ................
     c82:	00 01 f0 00 01 f0 00 00 e0 00 00 e0 00 00 e0 00     ................
     c92:	00 e0 00 00 e0 00 00 e0 00 0f fe 00 0f fe 00 0f     ................
     ca2:	fe 00 0f 14 28 14 02 00 7f fc 7f fc 7f fc 70 3c     ....(.........p<
     cb2:	70 38 70 78 70 f0 71 e0 01 c0 03 c0 07 80 0f 00     p8pxp.q.........
     cc2:	0e 0e 1e 0e 3c 0e 78 0e 70 0e ff fe ff fe ff fe     ....<.x.p.......
     cd2:	07 1a 1a 14 08 fb fe fe fe e0 e0 e0 e0 e0 e0 e0     ................
     ce2:	e0 e0 e0 e0 e0 e0 e0 e0 e0 e0 e0 e0 e0 fe fe fe     ................
     cf2:	0d 1b 36 14 03 fc e0 00 e0 00 f0 00 70 00 70 00     ..6.........p.p.
     d02:	38 00 38 00 3c 00 1c 00 1c 00 0e 00 0e 00 0f 00     8.8.<...........
     d12:	07 00 07 80 03 80 03 80 01 c0 01 c0 01 e0 00 e0     ................
     d22:	00 e0 00 70 00 70 00 78 00 38 00 38 07 1a 1a 14     ...p.p.x.8.8....
     d32:	04 fb fe fe fe 0e 0e 0e 0e 0e 0e 0e 0e 0e 0e 0e     ................
     d42:	0e 0e 0e 0e 0e 0e 0e 0e 0e fe fe fe 0d 0b 16 14     ................
     d52:	03 0b 02 00 07 00 07 00 0f 80 1f c0 3d e0 38 e0     ............=.8.
     d62:	78 f0 f0 78 e0 38 e0 38 14 03 09 14 00 f9 ff ff     x..x.8.8........
     d72:	f0 ff ff f0 ff ff f0 06 06 06 14 06 10 c0 e0 70     ...............p
     d82:	38 1c 0c 10 0f 1e 14 02 00 1f e0 7f f8 7f fc 70     8..............p
     d92:	3c 00 1c 00 1c 0f fc 7f fc 7f fc f0 1c e0 1c e0     <...............
     da2:	7c ff ff 7f df 3f 9f 13 15 3f 14 00 00 fc 00 00     |....?...?......
     db2:	fc 00 00 fc 00 00 1c 00 00 1c 00 00 1c 00 00 1c     ................
     dc2:	7c 00 1d ff 00 1f ff 80 1f 87 c0 1e 01 c0 1e 01     |...............
     dd2:	e0 1c 00 e0 1c 00 e0 1c 00 e0 1c 00 e0 1e 01 c0     ................
     de2:	1f 03 c0 ff ff 80 ff ff 00 fc fe 00 10 0f 1e 14     ................
     df2:	02 00 07 e6 1f fe 3f fe 7c 3e 70 0e e0 0e e0 0e     ......?.|>p.....
     e02:	e0 00 e0 00 e0 00 f0 06 78 0f 7f fe 3f fc 0f f0     ........x...?...
     e12:	13 15 3f 14 01 00 00 3f 00 00 3f 00 00 3f 00 00     ..?....?..?..?..
     e22:	07 00 00 07 00 00 07 00 07 e7 00 1f ff 00 3f ff     ..............?.
     e32:	00 7c 3f 00 70 0f 00 f0 0f 00 e0 07 00 e0 07 00     .|?.p...........
     e42:	e0 07 00 e0 07 00 70 0f 00 7c 3f 00 3f ff e0 1f     ......p..|?.?...
     e52:	f7 e0 07 e7 e0 12 0f 2d 14 01 00 03 f0 00 0f fc     .......-........
     e62:	00 1f fe 00 3e 1f 00 78 07 80 70 03 80 ff ff 80     ....>..x..p.....
     e72:	ff ff 80 ff ff 80 f0 00 00 78 00 00 7e 03 80 3f     .........x..~..?
     e82:	ff c0 1f ff 80 07 fe 00 10 15 2a 14 03 00 01 ff     ..........*.....
     e92:	07 ff 07 ff 0f 00 0e 00 0e 00 ff fc ff fc ff fc     ................
     ea2:	0e 00 0e 00 0e 00 0e 00 0e 00 0e 00 0e 00 0e 00     ................
     eb2:	0e 00 ff fc ff fc ff fc 12 16 42 14 01 f9 07 cf     ..........B.....
     ec2:	c0 1f ff c0 3f ff c0 7c 7e 00 70 1e 00 f0 1e 00     ....?..|~.p.....
     ed2:	e0 0e 00 e0 0e 00 e0 0e 00 f0 1e 00 70 1e 00 78     ............p..x
     ee2:	7e 00 3f fe 00 1f ee 00 0f ce 00 00 0e 00 00 0e     ~.?.............
     ef2:	00 00 1e 00 00 3c 00 1f fc 00 1f f8 00 1f e0 00     .....<..........
     f02:	12 15 3f 14 01 00 fc 00 00 fc 00 00 fc 00 00 1c     ..?.............
     f12:	00 00 1c 00 00 1c 00 00 1c f8 00 1d fc 00 1f fe     ................
     f22:	00 1f 0f 00 1e 07 00 1c 07 00 1c 07 00 1c 07 00     ................
     f32:	1c 07 00 1c 07 00 1c 07 00 1c 07 00 7f 1f c0 7f     ................
     f42:	1f c0 7f 1f c0 0f 15 2a 14 03 00 07 80 07 80 07     .......*........
     f52:	80 07 80 00 00 00 00 7f 80 7f 80 7f 80 03 80 03     ................
     f62:	80 03 80 03 80 03 80 03 80 03 80 03 80 03 80 ff     ................
     f72:	fe ff fe ff fe 0c 1c 38 14 03 f9 03 c0 03 c0 03     .......8........
     f82:	c0 03 c0 00 00 00 00 ff f0 ff f0 ff f0 00 70 00     ..............p.
     f92:	70 00 70 00 70 00 70 00 70 00 70 00 70 00 70 00     p.p.p.p.p.p.p.p.
     fa2:	70 00 70 00 70 00 70 00 70 00 70 00 f0 ff e0 ff     p.p.p.p.p.p.....
     fb2:	c0 ff 80 11 15 3f 14 01 00 fc 00 00 fc 00 00 fc     .....?..........
     fc2:	00 00 1c 00 00 1c 00 00 1c 00 00 1c ff 00 1c ff     ................
     fd2:	00 1c ff 00 1c 78 00 1c f0 00 1d e0 00 1f c0 00     .....x..........
     fe2:	1f c0 00 1f e0 00 1d f0 00 1c f8 00 1c 7c 00 fc     .............|..
     ff2:	3f 80 fc 3f 80 fc 3f 80 0f 15 2a 14 03 00 7f 80     ?..?..?...*.....
    1002:	7f 80 7f 80 03 80 03 80 03 80 03 80 03 80 03 80     ................
    1012:	03 80 03 80 03 80 03 80 03 80 03 80 03 80 03 80     ................
    1022:	03 80 ff fe ff fe ff fe 14 0f 2d 14 01 00 f3 8f     ..........-.....
    1032:	00 ff ff 80 ff ff c0 78 f1 c0 70 e1 c0 70 e1 c0     .......x..p..p..
    1042:	70 e1 c0 70 e1 c0 70 e1 c0 70 e1 c0 70 e1 c0 70     p..p..p..p..p..p
    1052:	e1 c0 fc f9 f0 fc f9 f0 fc f9 f0 11 0f 2d 14 02     .............-..
    1062:	00 f9 f0 00 fb f8 00 ff fc 00 3e 1e 00 3c 0e 00     ..........>..<..
    1072:	38 0e 00 38 0e 00 38 0e 00 38 0e 00 38 0e 00 38     8..8..8..8..8..8
    1082:	0e 00 38 0e 00 fe 3f 80 fe 3f 80 fe 3f 80 11 0f     ..8...?..?..?...
    1092:	2d 14 02 00 07 f0 00 1f fc 00 3f fe 00 78 0f 00     -.........?..x..
    10a2:	70 07 00 f0 07 80 e0 03 80 e0 03 80 e0 03 80 f0     p...............
    10b2:	07 80 70 07 00 78 0f 00 3f fe 00 1f fc 00 07 f0     ..p..x..?.......
    10c2:	00 13 16 42 14 00 f9 fc 7c 00 fd ff 00 ff ff 80     ...B....|.......
    10d2:	1f 03 c0 1e 01 e0 1c 00 e0 1c 00 e0 1c 00 e0 1c     ................
    10e2:	00 e0 1c 01 e0 1e 01 c0 1f 07 c0 1f ff 80 1d fe     ................
    10f2:	00 1c 78 00 1c 00 00 1c 00 00 1c 00 00 1c 00 00     ..x.............
    1102:	ff c0 00 ff c0 00 ff c0 00 13 16 42 14 01 f9 07     ...........B....
    1112:	e7 e0 1f ff e0 3f ff e0 7c 3f 00 70 0f 00 f0 0f     .....?..|?.p....
    1122:	00 e0 07 00 e0 07 00 e0 07 00 f0 0f 00 70 0f 00     .............p..
    1132:	7c 3f 00 3f ff 00 1f f7 00 07 c7 00 00 07 00 00     |?.?............
    1142:	07 00 00 07 00 00 07 00 00 7f e0 00 7f e0 00 7f     ................
    1152:	e0 11 0f 2d 14 02 00 7e 3e 00 7e ff 00 7f ff 80     ...-...~>.~.....
    1162:	0f c7 00 0f 02 00 0f 00 00 0e 00 00 0e 00 00 0e     ................
    1172:	00 00 0e 00 00 0e 00 00 0e 00 00 ff fc 00 ff fc     ................
    1182:	00 ff fc 00 0f 0f 1e 14 03 00 0f ec 3f fc 3f fc     ............?.?.
    1192:	78 3c 70 1c 78 00 7f c0 3f f8 0f fc e0 3e e0 0e     x<p.x...?....>..
    11a2:	f8 1e ff fc ff f8 e7 e0 10 14 28 14 02 00 1c 00     ..........(.....
    11b2:	1c 00 1c 00 1c 00 1c 00 ff fc ff fc ff fc 1c 00     ................
    11c2:	1c 00 1c 00 1c 00 1c 00 1c 00 1c 00 1c 06 1e 1f     ................
    11d2:	1f ff 0f fe 03 f0 12 0f 2d 14 01 00 fc 3f 00 fc     ........-....?..
    11e2:	3f 00 fc 3f 00 1c 07 00 1c 07 00 1c 07 00 1c 07     ?..?............
    11f2:	00 1c 07 00 1c 07 00 1c 07 00 1c 07 00 1e 1f 00     ................
    1202:	1f ff c0 0f ff c0 07 f7 c0 13 0f 2d 14 00 00 ff     ...........-....
    1212:	1f e0 ff 1f e0 ff 1f e0 3c 07 00 1c 07 00 1e 0e     ........<.......
    1222:	00 0e 0e 00 0f 1c 00 07 1c 00 07 b8 00 03 b8 00     ................
    1232:	03 f0 00 01 f0 00 01 e0 00 00 e0 00 13 0f 2d 14     ..............-.
    1242:	00 00 fe 0f e0 fe 0f e0 fe 0f e0 38 e3 80 38 e3     ...........8..8.
    1252:	80 39 f3 80 3d f7 80 1d f7 00 1f bf 00 1f 1f 00     .9..=...........
    1262:	1f 1f 00 0f 1e 00 0e 0e 00 0e 0e 00 0e 0e 00 11     ................
    1272:	0f 2d 14 01 00 fe 3f 80 fe 3f 80 fe 3f 80 3c 1c     .-....?..?..?.<.
    1282:	00 1e 38 00 0f 70 00 07 e0 00 03 e0 00 03 f0 00     ..8..p..........
    1292:	07 78 00 0e 3c 00 1c 1e 00 fe 3f 80 fe 3f 80 fe     .x..<.....?..?..
    12a2:	3f 80 13 16 42 14 01 f9 ff 1f e0 ff 1f e0 ff 1f     ?...B...........
    12b2:	e0 3c 03 80 1c 07 00 1e 07 00 0e 0e 00 0f 0e 00     .<..............
    12c2:	07 1c 00 07 9c 00 03 b8 00 03 f8 00 01 f0 00 01     ................
    12d2:	f0 00 00 e0 00 00 e0 00 01 c0 00 01 c0 00 03 80     ................
    12e2:	00 7f f0 00 7f f0 00 7f f0 00 0d 0f 1e 14 04 00     ................
    12f2:	ff f8 ff f8 ff f8 e0 f0 e1 e0 e3 c0 07 80 0f 00     ................
    1302:	1e 00 3c 00 78 38 f0 38 ff f8 ff f8 ff f8 09 1a     ..<.x8.8........
    1312:	34 14 05 fb 07 80 0f 80 0f 80 1e 00 1c 00 1c 00     4...............
    1322:	1c 00 1c 00 1c 00 1c 00 1c 00 3c 00 f8 00 f8 00     ..........<.....
    1332:	fc 00 1c 00 1c 00 1c 00 1c 00 1c 00 1c 00 1c 00     ................
    1342:	1c 00 1f 80 0f 80 07 80 03 1a 1a 14 08 fb e0 e0     ................
    1352:	e0 e0 e0 e0 e0 e0 e0 e0 e0 e0 e0 e0 e0 e0 e0 e0     ................
    1362:	e0 e0 e0 e0 e0 e0 e0 e0 09 1a 34 14 05 fb f0 00     ..........4.....
    1372:	f8 00 f8 00 3c 00 1c 00 1c 00 1c 00 1c 00 1c 00     ....<...........
    1382:	1c 00 1c 00 1e 00 0f 80 0f 80 1f 80 1c 00 1c 00     ................
    1392:	1c 00 1c 00 1c 00 1c 00 1c 00 1c 00 fc 00 f8 00     ................
    13a2:	f0 00 0f 07 0e 14 02 06 0c 00 3f 0e 7f 8e f7 de     ..........?.....
    13b2:	e3 fc e1 f8 00 60 ff ff ff ff ff ff ff ff ff ff     .....`..........
    13c2:	ff ff ff ff ff ff ff ff ff ff ff ff ff ff ff ff     ................
    13d2:	ff ff ff ff ff ff ff 00 00 00 14 00 01 05 15 15     ................
    13e2:	14 07 f9 70 f8 f8 70 00 00 70 70 70 70 70 70 70     ...p..p..ppppppp
    13f2:	70 f8 f8 f8 f8 f8 70 20 0d 17 2e 14 03 ff 07 00     p.....p ........
    1402:	07 00 07 00 07 00 07 00 0f d8 3f f8 7f f8 78 78     ..........?...xx
    1412:	f0 38 e0 38 e0 00 e0 00 e0 00 f0 38 78 78 7f f8     .8.8.......8xx..
    1422:	3f f0 0f c0 07 00 07 00 07 00 07 00 10 14 28 14     ?.............(.
    1432:	01 00 03 e0 07 f0 0f f8 1e 38 1c 38 1c 00 1c 00     .........8.8....
    1442:	1c 00 0e 00 ff e0 ff e0 ff e0 0e 00 0e 00 0e 00     ................
    1452:	0e 02 1e 07 7f ff 7f ff 7f fe 0f 0f 1e 14 02 02     ................
    1462:	e0 0e f7 de ff fe 7f fc 3c 78 78 3c 70 1c 70 1c     ........<xx<p.p.
    1472:	70 1c 78 3c 3c 78 7f fc ff fe f7 de e0 0e 11 14     p.x<<x..........
    1482:	3c 14 01 00 fe 3f 80 fe 3f 80 fe 3f 80 38 0e 00     <....?..?..?.8..
    1492:	1c 1c 00 1e 3c 00 0e 38 00 0f 78 00 07 70 00 03     ....<..8..x..p..
    14a2:	e0 00 1f fc 00 1f fc 00 01 c0 00 1f fc 00 1f fc     ................
    14b2:	00 01 c0 00 01 c0 00 1f fc 00 1f fc 00 1f fc 00     ................
    14c2:	03 1a 1a 14 08 fb e0 e0 e0 e0 e0 e0 e0 e0 e0 e0     ................
    14d2:	e0 e0 00 00 e0 e0 e0 e0 e0 e0 e0 e0 e0 e0 e0 e0     ................
    14e2:	10 18 30 14 02 fd 01 fe 07 fe 0f fe 1c 06 18 06     ..0.............
    14f2:	18 06 3c 00 7f 00 e7 80 c1 e0 60 f0 70 3c 3c 0e     ..<.......`.p<<.
    1502:	0f 06 07 83 01 e7 00 fe 00 3c 30 18 30 18 30 38     .........<0.0.08
    1512:	3f f0 3f e0 3f 80 0b 04 08 14 04 11 60 c0 f1 e0     ?.?.?.......`...
    1522:	f1 e0 60 c0 15 14 3c 14 ff 00 00 fc 00 03 ff 00     ..`...<.........
    1532:	0f ff c0 1e 03 e0 38 60 e0 71 f6 70 73 fe 70 e7     ......8`.q.ps.p.
    1542:	9e 38 e7 0e 38 ce 0e 38 ce 00 38 ce 00 38 ce 06     .8..8..8..8..8..
    1552:	38 e7 0f 78 e7 fe 70 73 fc f0 78 f1 e0 3e 07 c0     8..x..ps..x..>..
    1562:	1f ff 00 07 fc 00 0b 0e 1c 14 04 06 1f 00 7f 80     ................
    1572:	61 80 01 80 3f 80 7f 80 e1 80 c1 80 c3 80 ff e0     a...?...........
    1582:	7d e0 00 00 ff e0 ff e0 0f 0e 1c 14 01 00 03 06     }...............
    1592:	07 0e 0e 1c 1c 38 38 70 70 e0 e1 c0 e1 c0 70 e0     .....88pp.....p.
    15a2:	38 70 1c 38 0e 1c 07 0e 03 06 10 08 10 14 02 05     8p.8............
    15b2:	ff ff ff ff ff ff 00 07 00 07 00 07 00 07 00 07     ................
    15c2:	0f 03 06 14 02 08 ff fe ff fe ff fe 15 14 3c 14     ..............<.
    15d2:	ff 00 01 f8 00 07 fe 00 1f ff 80 3c 03 c0 3b f1     ...........<..;.
    15e2:	e0 73 fc e0 73 fe f0 e3 9e 70 e3 8e 78 e3 8e 38     .s..s....p..x..8
    15f2:	e3 fe 38 e3 fc 38 e3 b8 38 f3 bc 78 73 9e 70 7b     ..8..8..8..xs.p{
    1602:	8f f0 3c 03 e0 1f ff c0 0f ff 00 03 fc 00 0a 02     ..<.............
    1612:	04 14 05 11 ff c0 ff c0 09 09 12 14 05 0b 1c 00     ................
    1622:	77 00 c1 80 80 80 80 80 80 80 c1 80 77 00 1c 00     w...........w...
    1632:	11 12 36 14 01 00 01 c0 00 01 c0 00 01 c0 00 01     ..6.............
    1642:	c0 00 01 c0 00 01 c0 00 ff ff 80 ff ff 80 ff ff     ................
    1652:	80 01 c0 00 01 c0 00 01 c0 00 01 c0 00 01 c0 00     ................
    1662:	01 c0 00 ff ff 80 ff ff 80 ff ff 80 08 0e 0e 14     ................
    1672:	05 07 3c 7e e7 c3 03 07 0e 0c 18 38 70 e1 ff ff     ..<~.......8p...
    1682:	09 0e 1c 14 05 07 3e 00 7f 00 63 00 03 00 07 00     ......>...c.....
    1692:	1e 00 1f 00 03 80 01 80 01 80 c1 80 e3 00 7f 00     ................
    16a2:	3c 00 08 06 06 14 06 0f 06 0f 3e 78 e0 40 12 16     <.........>x.@..
    16b2:	42 14 01 f9 fc 3f 00 fc 3f 00 fc 3f 00 1c 07 00     B....?..?..?....
    16c2:	1c 07 00 1c 07 00 1c 07 00 1c 07 00 1c 07 00 1c     ................
    16d2:	07 00 1c 0f 00 1e 1f 00 1f ff c0 1f f7 c0 1d e7     ................
    16e2:	c0 1c 00 00 1c 00 00 1c 00 00 1c 00 00 1c 00 00     ................
    16f2:	1c 00 00 1c 00 00 0f 18 30 14 02 fd 0f fe 3f fe     ........0.....?.
    1702:	7b 18 f3 18 e3 18 e3 18 e3 18 e3 18 e3 18 73 18     {.............s.
    1712:	3f 18 1f 18 03 18 03 18 03 18 03 18 03 18 03 18     ?...............
    1722:	03 18 03 18 03 18 1f 3e 1f 3e 1f 3e 05 04 04 14     .......>.>.>....
    1732:	07 08 70 f8 f8 70 05 07 07 14 06 fa 30 30 30 18     ..p..p......000.
    1742:	f8 f8 70 08 0d 0d 14 06 07 38 f8 d8 18 18 18 18     ..p......8......
    1752:	18 18 18 18 ff ff 0b 0e 1c 14 04 06 0e 00 3f 80     ..............?.
    1762:	71 c0 e0 e0 c0 60 c0 60 c0 60 e0 e0 71 c0 3f 80     q....`.`.`..q.?.
    1772:	0e 00 00 00 ff e0 ff e0 0f 0e 1c 14 02 00 c1 80     ................
    1782:	e1 c0 70 e0 38 70 1c 38 0e 1c 07 0e 07 0e 0e 1c     ..p.8p.8........
    1792:	1c 38 38 70 70 e0 e1 c0 c1 80 13 14 3c 14 00 00     .88pp.......<...
    17a2:	38 00 00 f8 00 00 d8 00 80 18 01 c0 18 01 80 18     8...............
    17b2:	03 00 18 06 00 18 0c 00 18 1c c0 18 19 c0 ff 33     ...............3
    17c2:	c0 ff 72 c0 00 66 c0 00 ce c0 01 8c c0 03 9f e0     ..r..f..........
    17d2:	07 1f e0 02 00 c0 00 01 e0 00 01 e0 13 14 3c 14     ..............<.
    17e2:	00 00 38 00 00 f8 00 00 d8 02 00 18 07 00 18 0e     ..8.............
    17f2:	00 18 0c 00 18 18 00 18 38 00 18 70 00 18 67 80     ........8..p..g.
    1802:	fe ef c0 ff dc e0 01 98 60 03 00 e0 07 01 c0 0e     ........`.......
    1812:	07 80 04 0e 00 00 1c 60 00 1f e0 00 1f e0 13 15     .......`........
    1822:	3f 14 00 00 3e 00 00 7f 00 00 63 00 00 03 01 00     ?...>.....c.....
    1832:	03 03 80 1e 07 00 1f 06 00 03 8e 00 01 9c 00 c3     ................
    1842:	98 c0 e3 31 c0 7f 73 c0 1c 62 c0 00 c6 c0 01 ce     ...1..s..b......
    1852:	c0 03 8c c0 07 1f e0 02 1f e0 00 00 c0 00 03 e0     ................
    1862:	00 03 e0 0d 15 2a 14 03 fa 07 00 0f 80 0f 80 07     .....*..........
    1872:	00 00 00 00 00 00 00 07 00 07 00 07 00 1f 00 3f     ...............?
    1882:	00 7c 00 f0 00 e0 00 e0 38 e0 38 f0 38 7f f8 3f     .|......8.8.8..?
    1892:	f8 1f e0 15 1a 4e 14 ff 00 03 00 00 07 80 00 01     .....N..........
    18a2:	e0 00 00 f0 00 00 30 00 00 00 00 1f f0 00 1f f8     ......0.........
    18b2:	00 1f f8 00 01 fc 00 01 dc 00 01 dc 00 03 de 00     ................
    18c2:	03 8e 00 03 8e 00 07 07 00 07 07 00 07 07 00 0f     ................
    18d2:	ff 80 0f ff 80 1f ff c0 1c 01 c0 1c 01 c0 ff 8f     ................
    18e2:	f8 ff 8f f8 ff 8f f8 15 1a 4e 14 ff 00 00 03 00     .........N......
    18f2:	00 0f 00 00 1e 00 00 78 00 00 60 00 00 00 00 1f     .......x..`.....
    1902:	f0 00 1f f8 00 1f f8 00 01 fc 00 01 dc 00 01 dc     ................
    1912:	00 03 de 00 03 8e 00 03 8e 00 07 07 00 07 07 00     ................
    1922:	07 07 00 0f ff 80 0f ff 80 1f ff c0 1c 01 c0 1c     ................
    1932:	01 c0 ff 8f f8 ff 8f f8 ff 8f f8 15 1a 4e 14 ff     .............N..
    1942:	00 00 40 00 00 e0 00 03 b8 00 07 1c 00 0e 0e 00     ..@.............
    1952:	00 00 00 1f f0 00 1f f8 00 1f f8 00 01 fc 00 01     ................
    1962:	dc 00 01 dc 00 03 de 00 03 8e 00 03 8e 00 07 07     ................
    1972:	00 07 07 00 07 07 00 0f ff 80 0f ff 80 1f ff c0     ................
    1982:	1c 01 c0 1c 01 c0 ff 8f f8 ff 8f f8 ff 8f f8 15     ................
    1992:	19 4b 14 ff 00 03 86 00 07 e6 00 06 76 00 06 1c     .K..........v...
    19a2:	00 00 00 00 1f f0 00 1f f8 00 1f f8 00 01 fc 00     ................
    19b2:	01 dc 00 01 dc 00 03 de 00 03 8e 00 03 8e 00 07     ................
    19c2:	07 00 07 07 00 07 07 00 0f ff 80 0f ff 80 1f ff     ................
    19d2:	c0 1c 01 c0 1c 01 c0 ff 8f f8 ff 8f f8 ff 8f f8     ................
    19e2:	15 19 4b 14 ff 00 0c 18 00 1e 3c 00 1e 3c 00 0c     ..K.......<..<..
    19f2:	18 00 00 00 00 1f f0 00 1f f8 00 1f f8 00 01 fc     ................
    1a02:	00 01 dc 00 01 dc 00 03 de 00 03 8e 00 03 8e 00     ................
    1a12:	07 07 00 07 07 00 07 07 00 0f ff 80 0f ff 80 1f     ................
    1a22:	ff c0 1c 01 c0 1c 01 c0 ff 8f f8 ff 8f f8 ff 8f     ................
    1a32:	f8 15 1a 4e 14 ff 00 00 f0 00 01 98 00 01 08 00     ...N............
    1a42:	01 98 00 00 f0 00 00 00 00 1f f0 00 1f f8 00 1f     ................
    1a52:	f8 00 01 fc 00 01 dc 00 01 dc 00 03 de 00 03 8e     ................
    1a62:	00 03 8e 00 07 07 00 07 07 00 07 07 00 0f ff 80     ................
    1a72:	0f ff 80 1f ff c0 1c 01 c0 1c 01 c0 ff 8f f8 ff     ................
    1a82:	8f f8 ff 8f f8 14 14 3c 14 00 00 1f ff e0 1f ff     .......<........
    1a92:	e0 1f ff e0 07 70 e0 07 70 e0 06 70 e0 0e 70 e0     .....p..p..p..p.
    1aa2:	0e 73 00 0e 73 00 0e 7f 00 1c 7f 00 1c 73 00 1f     .s..s........s..
    1ab2:	f3 00 1f f3 00 38 70 70 38 70 70 38 70 70 ff ff     .....8pp8pp8pp..
    1ac2:	f0 ff ff f0 ff ff f0 11 1a 4e 14 01 fa 03 e3 00     .........N......
    1ad2:	0f ff 00 1f ff 00 3e 1f 00 78 0f 00 70 07 00 f0     ......>..x..p...
    1ae2:	07 00 e0 00 00 e0 00 00 e0 00 00 e0 00 00 e0 00     ................
    1af2:	00 e0 00 00 f0 00 00 70 01 00 78 03 80 3e 0f 80     .......p..x..>..
    1b02:	3f ff 00 0f fe 00 03 f8 00 00 c0 00 00 c0 00 00     ?...............
    1b12:	e0 00 04 70 00 07 f0 00 03 e0 00 11 1a 4e 14 01     ...p.........N..
    1b22:	00 03 00 00 07 80 00 01 e0 00 00 f0 00 00 30 00     ..............0.
    1b32:	00 00 00 ff ff 00 ff ff 00 ff ff 00 1c 07 00 1c     ................
    1b42:	07 00 1c 07 00 1c 77 00 1c 70 00 1f f0 00 1f f0     ......w..p......
    1b52:	00 1f f0 00 1c 70 00 1c 70 00 1c 03 80 1c 03 80     .....p..p.......
    1b62:	1c 03 80 1c 03 80 ff ff 80 ff ff 80 ff ff 80 11     ................
    1b72:	1a 4e 14 01 00 00 0c 00 00 3c 00 00 78 00 01 e0     .N.......<..x...
    1b82:	00 01 80 00 00 00 00 ff ff 00 ff ff 00 ff ff 00     ................
    1b92:	1c 07 00 1c 07 00 1c 07 00 1c 77 00 1c 70 00 1f     ..........w..p..
    1ba2:	f0 00 1f f0 00 1f f0 00 1c 70 00 1c 70 00 1c 03     .........p..p...
    1bb2:	80 1c 03 80 1c 03 80 1c 03 80 ff ff 80 ff ff 80     ................
    1bc2:	ff ff 80 11 1a 4e 14 01 00 00 80 00 01 c0 00 07     .....N..........
    1bd2:	70 00 0e 38 00 1c 1c 00 00 00 00 ff ff 00 ff ff     p..8............
    1be2:	00 ff ff 00 1c 07 00 1c 07 00 1c 07 00 1c 77 00     ..............w.
    1bf2:	1c 70 00 1f f0 00 1f f0 00 1f f0 00 1c 70 00 1c     .p...........p..
    1c02:	70 00 1c 03 80 1c 03 80 1c 03 80 1c 03 80 ff ff     p...............
    1c12:	80 ff ff 80 ff ff 80 11 19 4b 14 01 00 06 0c 00     .........K......
    1c22:	0f 1e 00 0f 1e 00 06 0c 00 00 00 00 ff ff 00 ff     ................
    1c32:	ff 00 ff ff 00 1c 07 00 1c 07 00 1c 07 00 1c 77     ...............w
    1c42:	00 1c 70 00 1f f0 00 1f f0 00 1f f0 00 1c 70 00     ..p...........p.
    1c52:	1c 70 00 1c 03 80 1c 03 80 1c 03 80 1c 03 80 ff     .p..............
    1c62:	ff 80 ff ff 80 ff ff 80 0d 1a 34 14 03 00 18 00     ..........4.....
    1c72:	3c 00 0f 00 07 80 01 80 00 00 ff f8 ff f8 ff f8     <...............
    1c82:	07 00 07 00 07 00 07 00 07 00 07 00 07 00 07 00     ................
    1c92:	07 00 07 00 07 00 07 00 07 00 07 00 ff f8 ff f8     ................
    1ca2:	ff f8 0d 1a 34 14 03 00 00 30 00 f0 01 e0 07 80     ....4....0......
    1cb2:	06 00 00 00 ff f8 ff f8 ff f8 07 00 07 00 07 00     ................
    1cc2:	07 00 07 00 07 00 07 00 07 00 07 00 07 00 07 00     ................
    1cd2:	07 00 07 00 07 00 ff f8 ff f8 ff f8 0d 1a 34 14     ..............4.
    1ce2:	03 00 02 00 07 00 1d c0 38 e0 70 70 00 00 ff f8     ........8.pp....
    1cf2:	ff f8 ff f8 07 00 07 00 07 00 07 00 07 00 07 00     ................
    1d02:	07 00 07 00 07 00 07 00 07 00 07 00 07 00 07 00     ................
    1d12:	ff f8 ff f8 ff f8 0d 19 32 14 03 00 30 60 78 f0     ........2...0`x.
    1d22:	78 f0 30 60 00 00 ff f8 ff f8 ff f8 07 00 07 00     x.0`............
    1d32:	07 00 07 00 07 00 07 00 07 00 07 00 07 00 07 00     ................
    1d42:	07 00 07 00 07 00 07 00 ff f8 ff f8 ff f8 11 14     ................
    1d52:	3c 14 02 00 ff e0 00 ff f8 00 ff fc 00 38 3e 00     <............8>.
    1d62:	38 0f 00 38 07 00 38 07 00 38 03 80 ff 83 80 ff     8..8..8..8......
    1d72:	83 80 ff 83 80 38 03 80 38 03 80 38 03 80 38 07     .....8..8..8..8.
    1d82:	00 38 07 00 38 1e 00 ff fe 00 ff fc 00 ff f0 00     .8..8...........
    1d92:	14 19 4b 14 ff 00 03 86 00 07 e6 00 06 76 00 06     ..K..........v..
    1da2:	1c 00 00 00 00 fc 1f f0 fe 1f f0 ff 1f f0 1f 01     ................
    1db2:	c0 1f 81 c0 1f 81 c0 1d c1 c0 1d e1 c0 1c e1 c0     ................
    1dc2:	1c f1 c0 1c 79 c0 1c 39 c0 1c 3d c0 1c 1d c0 1c     ....y..9..=.....
    1dd2:	0f c0 1c 0f c0 1c 07 c0 7f c7 c0 7f c3 c0 7f c1     ................
    1de2:	c0 11 1a 4e 14 01 00 06 00 00 0f 00 00 03 c0 00     ...N............
    1df2:	01 e0 00 00 60 00 00 00 00 07 f0 00 0f fc 00 1f     ....`...........
    1e02:	fc 00 3c 1e 00 78 0f 00 70 07 00 70 07 00 e0 03     ..<..x..p..p....
    1e12:	80 e0 03 80 e0 03 80 e0 03 80 e0 03 80 e0 03 80     ................
    1e22:	70 07 00 78 07 00 38 0e 00 3e 3e 00 1f fc 00 0f     p..x..8..>>.....
    1e32:	f8 00 03 e0 00 11 1a 4e 14 01 00 00 18 00 00 78     .......N.......x
    1e42:	00 00 f0 00 03 c0 00 03 00 00 00 00 00 07 f0 00     ................
    1e52:	0f fc 00 1f fc 00 3c 1e 00 78 0f 00 70 07 00 70     ......<..x..p..p
    1e62:	07 00 e0 03 80 e0 03 80 e0 03 80 e0 03 80 e0 03     ................
    1e72:	80 e0 03 80 70 07 00 78 07 00 38 0e 00 3e 3e 00     ....p..x..8..>>.
    1e82:	1f fc 00 0f f8 00 03 e0 00 11 1a 4e 14 01 00 00     ...........N....
    1e92:	80 00 01 c0 00 07 70 00 0e 38 00 1c 1c 00 00 00     ......p..8......
    1ea2:	00 07 f0 00 0f fc 00 1f fc 00 3c 1e 00 78 0f 00     ..........<..x..
    1eb2:	70 07 00 70 07 00 e0 03 80 e0 03 80 e0 03 80 e0     p..p............
    1ec2:	03 80 e0 03 80 e0 03 80 70 07 00 78 07 00 38 0e     ........p..x..8.
    1ed2:	00 3e 3e 00 1f fc 00 0f f8 00 03 e0 00 11 19 4b     .>>............K
    1ee2:	14 01 00 07 0c 00 0f cc 00 0c ec 00 0c 38 00 00     .............8..
    1ef2:	00 00 07 f0 00 0f fc 00 1f fc 00 3c 1e 00 78 0f     ...........<..x.
    1f02:	00 70 07 00 70 07 00 e0 03 80 e0 03 80 e0 03 80     .p..p...........
    1f12:	e0 03 80 e0 03 80 e0 03 80 70 07 00 78 07 00 38     .........p..x..8
    1f22:	0e 00 3e 3e 00 1f fc 00 0f f8 00 03 e0 00 11 19     ..>>............
    1f32:	4b 14 01 00 0c 18 00 1e 3c 00 1e 3c 00 0c 18 00     K.......<..<....
    1f42:	00 00 00 07 f0 00 0f fc 00 1f fc 00 3c 1e 00 78     ............<..x
    1f52:	0f 00 70 07 00 70 07 00 e0 03 80 e0 03 80 e0 03     ..p..p..........
    1f62:	80 e0 03 80 e0 03 80 e0 03 80 70 07 00 78 07 00     ..........p..x..
    1f72:	38 0e 00 3e 3e 00 1f fc 00 0f f8 00 03 e0 00 0f     8..>>...........
    1f82:	10 20 14 02 00 e0 0e f0 1e f8 3e 78 3c 3c 78 1e     . ........>x<<x.
    1f92:	f0 0f e0 07 c0 07 c0 0f e0 1e f0 3c 78 78 3c f8     ...........<xx<.
    1fa2:	3e f0 1e e0 0e 11 17 45 14 01 fe 00 03 80 03 e3     >......E........
    1fb2:	80 0f ff 80 1f ff 00 3e 3e 00 38 1e 00 78 3f 00     .......>>.8..x?.
    1fc2:	70 7f 00 e0 7b 80 e0 f3 80 e1 e3 80 e1 c3 80 e3     p...{...........
    1fd2:	c3 80 e7 83 80 ff 07 80 7e 07 00 7e 0f 00 3c 1e     ........~..~..<.
    1fe2:	00 7f fc 00 7f f8 00 f7 f0 00 e0 00 00 e0 00 00     ................
    1ff2:	13 1a 4e 14 00 00 03 00 00 07 80 00 01 e0 00 00     ..N.............
    2002:	f0 00 00 30 00 00 00 00 ff 1f e0 ff 1f e0 ff 1f     ...0............
    2012:	e0 38 03 80 38 03 80 38 03 80 38 03 80 38 03 80     .8..8..8..8..8..
    2022:	38 03 80 38 03 80 38 03 80 38 03 80 38 03 80 38     8..8..8..8..8..8
    2032:	03 80 38 03 80 1c 07 80 1f 1f 00 0f fe 00 07 fc     ..8.............
    2042:	00 01 f8 00 13 1a 4e 14 00 00 00 1c 00 00 3c 00     ......N.......<.
    2052:	00 f0 00 01 e0 00 01 80 00 00 00 00 ff 1f e0 ff     ................
    2062:	1f e0 ff 1f e0 38 03 80 38 03 80 38 03 80 38 03     .....8..8..8..8.
    2072:	80 38 03 80 38 03 80 38 03 80 38 03 80 38 03 80     .8..8..8..8..8..
    2082:	38 03 80 38 03 80 38 03 80 1c 07 80 1f 1f 00 0f     8..8..8.........
    2092:	fe 00 07 fc 00 01 f8 00 13 1a 4e 14 00 00 00 40     ..........N....@
    20a2:	00 00 e0 00 03 b8 00 07 1c 00 0e 0e 00 00 00 00     ................
    20b2:	ff 1f e0 ff 1f e0 ff 1f e0 38 03 80 38 03 80 38     .........8..8..8
    20c2:	03 80 38 03 80 38 03 80 38 03 80 38 03 80 38 03     ..8..8..8..8..8.
    20d2:	80 38 03 80 38 03 80 38 03 80 38 03 80 1c 07 80     .8..8..8..8.....
    20e2:	1f 1f 00 0f fe 00 07 fc 00 01 f8 00 13 1a 4e 14     ..............N.
    20f2:	00 00 06 0c 00 0f 1e 00 0f 1e 00 06 0c 00 00 00     ................
    2102:	00 00 00 00 ff bf e0 ff bf e0 ff bf e0 38 03 80     .............8..
    2112:	38 03 80 38 03 80 38 03 80 38 03 80 38 03 80 38     8..8..8..8..8..8
    2122:	03 80 38 03 80 38 03 80 38 03 80 38 03 80 38 03     ..8..8..8..8..8.
    2132:	80 1c 07 80 1f 1f 00 0f fe 00 07 fc 00 01 f8 00     ................
    2142:	11 1a 4e 14 01 00 00 18 00 00 78 00 00 f0 00 03     ..N.......x.....
    2152:	c0 00 03 00 00 00 00 00 fe 3f 80 fe 3f 80 fe 3f     .........?..?..?
    2162:	80 3c 1e 00 1c 1c 00 1e 3c 00 0e 38 00 0f 78 00     .<......<..8..x.
    2172:	07 f0 00 03 e0 00 03 e0 00 01 c0 00 01 c0 00 01     ................
    2182:	c0 00 01 c0 00 01 c0 00 01 c0 00 1f fc 00 1f fc     ................
    2192:	00 1f fc 00 12 14 3c 14 01 00 ff 80 00 ff 80 00     ......<.........
    21a2:	ff 80 00 1c 00 00 1f f8 00 1f fe 00 1f ff 00 1c     ................
    21b2:	0f 80 1c 03 80 1c 03 c0 1c 03 c0 1c 03 80 1c 0f     ................
    21c2:	80 1f ff 00 1f fe 00 1f f8 00 1c 00 00 ff 80 00     ................
    21d2:	ff 80 00 ff 80 00 11 16 42 14 00 ff 03 e0 00 07     ........B.......
    21e2:	f0 00 0f f8 00 1e 3c 00 1c 1c 00 1c 1c 00 1c 1c     ......<.........
    21f2:	00 1c 3c 00 1d f8 00 1d f8 00 1d fe 00 1c 1f 00     ..<.............
    2202:	1c 0f 00 1c 07 80 1c 03 80 1c 03 80 1d c3 80 1d     ................
    2212:	c3 80 ff ff 00 fe ff 00 fe 7e 00 00 18 00 11 16     .........~......
    2222:	42 14 02 00 18 00 00 3c 00 00 0f 00 00 07 80 00     B......<........
    2232:	01 80 00 00 00 00 00 00 00 0f e0 00 3f f0 00 3f     ............?..?
    2242:	f8 00 38 3c 00 00 1c 00 00 1c 00 0f fc 00 3f fc     ..8<..........?.
    2252:	00 7f fc 00 78 1c 00 f0 1c 00 e0 7c 00 ff ff 80     ....x......|....
    2262:	7f ff 80 3f 9f 80 11 16 42 14 02 00 00 20 00 00     ...?....B.... ..
    2272:	70 00 00 f0 00 03 c0 00 07 80 00 06 00 00 00 00     p...............
    2282:	00 0f e0 00 3f f0 00 3f f8 00 38 3c 00 00 1c 00     ....?..?..8<....
    2292:	00 1c 00 0f fc 00 3f fc 00 7f fc 00 78 1c 00 e0     ......?.....x...
    22a2:	3c 00 e0 7c 00 ff ff 80 7f df 80 3f 9f 80 11 16     <..|.......?....
    22b2:	42 14 01 00 00 80 00 01 c0 00 07 70 00 0e 38 00     B..........p..8.
    22c2:	1c 1c 00 00 00 00 00 00 00 07 e0 00 3f f0 00 3f     ............?..?
    22d2:	f8 00 3c 3c 00 00 1c 00 00 1c 00 0f fc 00 3f fc     ..<<..........?.
    22e2:	00 7f fc 00 78 1c 00 f0 1c 00 e0 3c 00 ff ff 80     ....x......<....
    22f2:	7f ff 80 3f 9f 80 11 15 3f 14 01 00 0e 18 00 1f     ...?....?.......
    2302:	98 00 19 f8 00 18 70 00 00 00 00 00 00 00 0f e0     ......p.........
    2312:	00 3f f0 00 3f f8 00 38 3c 00 00 1c 00 00 1c 00     .?..?..8<.......
    2322:	0f fc 00 3f fc 00 7f fc 00 78 1c 00 f0 1c 00 e0     ...?.....x......
    2332:	7c 00 ff ff 80 7f df 80 3f 9f 80 11 15 3f 14 02     |.......?....?..
    2342:	00 0c 18 00 1e 3c 00 1e 3c 00 0c 18 00 00 00 00     .....<..<.......
    2352:	00 00 00 0f e0 00 3f f0 00 3f f8 00 38 3c 00 00     ......?..?..8<..
    2362:	1c 00 00 1c 00 0f fc 00 3f fc 00 7f fc 00 78 1c     ........?.....x.
    2372:	00 f0 1c 00 e0 7c 00 ff ff 80 7f df 80 3f 9f 80     .....|.......?..
    2382:	11 15 3f 14 01 00 03 c0 00 06 60 00 04 20 00 06     ..?.......`.. ..
    2392:	60 00 03 c0 00 00 00 00 0f e0 00 3f f0 00 3f f8     `..........?..?.
    23a2:	00 38 3c 00 00 1c 00 00 1c 00 0f fc 00 3f fc 00     .8<..........?..
    23b2:	7f fc 00 78 1c 00 f0 1c 00 e0 7c 00 ff ff 80 7f     ...x......|.....
    23c2:	df 80 3f 9f 80 14 0f 2d 14 ff 00 0f 87 00 3f ff     ..?....-......?.
    23d2:	c0 3f ff c0 38 fd e0 00 70 70 03 f0 70 1f ff f0     .?..8...pp..p...
    23e2:	7f ff f0 ff ff f0 f0 70 00 e0 78 00 f1 f8 70 7f     .......p..x...p.
    23f2:	ff f0 3f ff f0 1f 27 80 10 15 2a 14 02 fa 07 e6     ..?...'...*.....
    2402:	1f fe 3f fe 7c 3e 70 0e f0 0e e0 0e e0 00 e0 00     ..?.|>p.........
    2412:	e0 00 f0 06 7c 0f 3f fe 1f fc 07 f0 01 80 01 80     ....|.?.........
    2422:	01 c0 08 e0 0f c0 03 80 10 15 2a 14 01 00 06 00     ..........*.....
    2432:	0f 00 03 c0 01 e0 00 60 00 00 07 e0 1f f8 3f fc     .......`......?.
    2442:	7c 3e 70 0e f0 0f ff ff ff ff ff ff e0 00 70 00     |>p...........p.
    2452:	7c 0f 3f ff 1f fe 07 f0 10 16 2c 14 01 00 00 10     |.?.......,.....
    2462:	00 38 00 78 01 e0 03 c0 03 00 00 00 07 e0 1f f8     .8.x............
    2472:	3f fc 7c 3e 70 0e f0 0f ff ff ff ff ff ff e0 00     ?.|>p...........
    2482:	70 00 7c 0e 3f ff 1f fe 07 f0 10 16 2c 14 01 00     p.|.?.......,...
    2492:	00 80 01 c0 07 70 0e 38 1c 1c 00 00 00 00 07 e0     .....p.8........
    24a2:	1f f8 3f fc 7c 3e 70 0e f0 0f ff ff ff ff ff ff     ..?.|>p.........
    24b2:	e0 00 70 00 7c 1f 3f ff 1f ff 07 f0 10 15 2a 14     ..p.|.?.......*.
    24c2:	01 00 0c 18 1e 3c 1e 3c 0c 18 00 00 00 00 07 e0     .....<.<........
    24d2:	1f f8 3f fc 7c 3e 70 0e f0 0f ff ff ff ff ff ff     ..?.|>p.........
    24e2:	e0 00 70 00 7c 1f 3f ff 1f ff 07 f0 0f 16 2c 14     ..p.|.?.......,.
    24f2:	02 00 18 00 3c 00 0f 00 07 80 01 80 00 00 00 00     ....<...........
    2502:	7f 80 7f 80 7f 80 03 80 03 80 03 80 03 80 03 80     ................
    2512:	03 80 03 80 03 80 03 80 ff fe ff fe ff fe 0f 17     ................
    2522:	2e 14 02 00 00 80 01 c0 03 c0 0f 00 1e 00 18 00     ................
    2532:	00 00 00 00 7f 80 7f 80 7f 80 03 80 03 80 03 80     ................
    2542:	03 80 03 80 03 80 03 80 03 80 03 80 ff fe ff fe     ................
    2552:	ff fe 0f 16 2c 14 02 00 02 00 07 00 1d c0 38 e0     ....,.........8.
    2562:	70 70 00 00 00 00 7f 80 7f 80 7f 80 03 80 03 80     pp..............
    2572:	03 80 03 80 03 80 03 80 03 80 03 80 03 80 ff fe     ................
    2582:	ff fe ff fe 0f 15 2a 14 02 00 30 60 78 f0 78 f0     ......*...0`x.x.
    2592:	30 60 00 00 00 00 7f 80 7f 80 7f 80 03 80 03 80     0`..............
    25a2:	03 80 03 80 03 80 03 80 03 80 03 80 03 80 ff fe     ................
    25b2:	ff fe ff fe 10 15 2a 14 02 00 7e 0e ff bf ff fc     ......*...~.....
    25c2:	03 f0 0f f0 7f f8 7c 38 70 3c 07 dc 1f fe 7f fe     ......|8p<......
    25d2:	78 1e f0 0f e0 07 e0 07 e0 0f f0 0f f8 3e 7f fc     x............>..
    25e2:	3f f8 1f e0 11 15 3f 14 01 00 0e 18 00 1f 98 00     ?.....?.........
    25f2:	19 f8 00 18 70 00 00 00 00 00 00 00 f9 f0 00 fb     ....p...........
    2602:	fc 00 ff fe 00 3c 1e 00 38 0e 00 38 0e 00 38 0e     .....<..8..8..8.
    2612:	00 38 0e 00 38 0e 00 38 0e 00 38 0e 00 38 0e 00     .8..8..8..8..8..
    2622:	fe 3f 80 fe 3f 80 fe 3f 80 11 15 3f 14 01 00 06     .?..?..?...?....
    2632:	00 00 0f 00 00 03 c0 00 01 e0 00 00 60 00 00 00     ............`...
    2642:	00 07 f0 00 0f f8 00 3f fe 00 3c 1e 00 78 0f 00     .......?..<..x..
    2652:	f0 07 80 e0 03 80 e0 03 80 e0 03 80 f0 07 80 78     ...............x
    2662:	0f 00 7c 1f 00 3f fe 00 1f fc 00 07 f0 00 11 16     ..|..?..........
    2672:	42 14 01 00 00 10 00 00 38 00 00 78 00 01 e0 00     B.......8..x....
    2682:	03 c0 00 03 00 00 00 00 00 07 f0 00 0f f8 00 3f     ...............?
    2692:	fe 00 3c 1e 00 78 0f 00 f0 07 80 e0 03 80 e0 03     ..<..x..........
    26a2:	80 e0 03 80 f0 07 80 78 0f 00 7c 1f 00 3f fe 00     .......x..|..?..
    26b2:	1f fc 00 07 f0 00 11 16 42 14 01 00 00 80 00 01     ........B.......
    26c2:	c0 00 07 70 00 0e 38 00 1c 1c 00 00 00 00 00 00     ...p..8.........
    26d2:	00 07 f0 00 0f f8 00 3f fe 00 3c 1e 00 78 0f 00     .......?..<..x..
    26e2:	f0 07 80 e0 03 80 e0 03 80 e0 03 80 f0 07 80 78     ...............x
    26f2:	0f 00 7c 1f 00 3f fe 00 1f fc 00 07 f0 00 11 15     ..|..?..........
    2702:	3f 14 01 00 07 0c 00 0f cc 00 0c fc 00 0c 38 00     ?.............8.
    2712:	00 00 00 00 00 00 07 f0 00 0f f8 00 3f fe 00 3c     ............?..<
    2722:	1e 00 78 0f 00 f0 07 80 e0 03 80 e0 03 80 e0 03     ..x.............
    2732:	80 f0 07 80 78 0f 00 7c 1f 00 3f fe 00 1f fc 00     ....x..|..?.....
    2742:	07 f0 00 11 15 3f 14 01 00 0c 18 00 1e 3c 00 1e     .....?.......<..
    2752:	3c 00 0c 18 00 00 00 00 00 00 00 07 f0 00 0f f8     <...............
    2762:	00 3f fe 00 3c 1e 00 78 0f 00 f0 07 80 e0 03 80     .?..<..x........
    2772:	e0 03 80 e0 03 80 f0 07 80 78 0f 00 7c 1f 00 3f     .........x..|..?
    2782:	fe 00 1f fc 00 07 f0 00 0f 0f 1e 14 02 02 03 80     ................
    2792:	07 c0 07 c0 03 80 00 00 00 00 ff fe ff fe ff fe     ................
    27a2:	00 00 00 00 03 80 07 c0 07 c0 03 80 11 12 36 14     ..............6.
    27b2:	01 fe 00 03 80 03 e3 80 0f ff 80 3f ff 00 3e 3e     ...........?..>>
    27c2:	00 78 3f 00 70 7f 00 e0 f3 80 e1 e3 80 e3 c3 80     .x?.p...........
    27d2:	e7 83 80 7f 07 00 7e 1f 00 3f fe 00 7f fc 00 f7     ......~..?......
    27e2:	f0 00 e0 00 00 e0 00 00 12 16 42 14 00 00 03 00     ..........B.....
    27f2:	00 07 80 00 01 e0 00 00 f0 00 00 30 00 00 00 00     ...........0....
    2802:	00 00 00 fc 3f 00 fc 3f 00 fc 3f 00 1c 07 00 1c     ....?..?..?.....
    2812:	07 00 1c 07 00 1c 07 00 1c 07 00 1c 07 00 1c 07     ................
    2822:	00 1c 0f 00 1c 1f 00 1f ff c0 0f f7 c0 07 e7 c0     ................
    2832:	12 16 42 14 00 00 00 08 00 00 1c 00 00 3c 00 00     ..B..........<..
    2842:	f0 00 01 e0 00 01 80 00 00 00 00 fc 3f 00 fc 3f     ............?..?
    2852:	00 fc 3f 00 1c 07 00 1c 07 00 1c 07 00 1c 07 00     ..?.............
    2862:	1c 07 00 1c 07 00 1c 07 00 1c 0f 00 1c 1f 00 1f     ................
    2872:	ff c0 0f f7 c0 07 e7 c0 12 16 42 14 00 00 00 80     ..........B.....
    2882:	00 01 c0 00 07 70 00 0e 38 00 1c 1c 00 00 00 00     .....p..8.......
    2892:	00 00 00 fc 3f 00 fc 3f 00 fc 3f 00 1c 07 00 1c     ....?..?..?.....
    28a2:	07 00 1c 07 00 1c 07 00 1c 07 00 1c 07 00 1c 07     ................
    28b2:	00 1c 0f 00 1c 1f 00 1f ff c0 0f f7 c0 07 e7 c0     ................
    28c2:	12 15 3f 14 00 00 0c 18 00 1e 3c 00 1e 3c 00 0c     ..?.......<..<..
    28d2:	18 00 00 00 00 00 00 00 fc 3f 00 fc 3f 00 fc 3f     .........?..?..?
    28e2:	00 1c 07 00 1c 07 00 1c 07 00 1c 07 00 1c 07 00     ................
    28f2:	1c 07 00 1c 07 00 1c 0f 00 1c 1f 00 1f ff c0 0f     ................
    2902:	f7 c0 07 e7 c0 11 1d 57 14 01 f9 00 10 00 00 38     .......W.......8
    2912:	00 00 78 00 01 e0 00 03 c0 00 03 00 00 00 00 00     ..x.............
    2922:	fe 3f 80 fe 3f 80 fe 3f 80 78 0f 00 38 0e 00 3c     .?..?..?.x..8..<
    2932:	1e 00 1c 1c 00 1e 3c 00 0e 38 00 0f 78 00 07 70     ......<..8..x..p
    2942:	00 07 f0 00 03 e0 00 03 e0 00 01 c0 00 01 c0 00     ................
    2952:	03 80 00 03 80 00 07 00 00 ff e0 00 ff e0 00 ff     ................
    2962:	e0 00 13 1c 54 14 00 f9 fc 00 00 fc 00 00 fc 00     ....T...........
    2972:	00 1c 00 00 1c 00 00 1c 00 00 1c fc 00 1f ff 00     ................
    2982:	1f ff 80 1f 87 c0 1f 03 c0 1e 01 e0 1c 00 e0 1c     ................
    2992:	00 e0 1c 00 e0 1e 01 e0 1e 01 c0 1f 87 c0 1f ff     ................
    29a2:	80 1f ff 00 1c fc 00 1c 00 00 1c 00 00 1c 00 00     ................
    29b2:	1c 00 00 ff c0 00 ff c0 00 ff c0 00 11 1c 54 14     ..............T.
    29c2:	01 f9 06 0c 00 0f 1e 00 0f 1e 00 06 0c 00 00 00     ................
    29d2:	00 00 00 00 fe 3f 80 fe 3f 80 fe 3f 80 78 0f 00     .....?..?..?.x..
    29e2:	38 0e 00 3c 1e 00 1c 1c 00 1e 3c 00 0e 38 00 0f     8..<......<..8..
    29f2:	78 00 07 70 00 07 f0 00 03 e0 00 03 e0 00 01 c0     x..p............
    2a02:	00 01 c0 00 03 80 00 03 80 00 07 00 00 ff e0 00     ................
    2a12:	ff e0 00 ff e0 00                                   ......

00002a18 <u8g_font_courB14>:
    2a18:	00 11 1a fc f9 0b 02 65 05 9b 20 ff fc 0f fb 0c     .......e.. .....
    2a28:	fc 00 00 00 0b 00 01 03 0c 0c 0b 04 00 e0 e0 e0     ................
    2a38:	e0 e0 e0 c0 c0 c0 00 c0 c0 06 06 06 0b 02 06 cc     ................
    2a48:	cc cc cc 88 88 08 0e 0e 0b 01 ff 36 36 36 36 ff     ...........6666.
    2a58:	ff 6c 6c ff ff 6c 6c 6c 6c 08 0f 0f 0b 01 fe 18     .ll..llll.......
    2a68:	18 3f 7f c3 c0 f0 7e 0f 03 c7 fe fc 18 18 08 0c     .?....~.........
    2a78:	0c 0b 01 00 70 d8 88 d8 73 0e 78 ce 1b 11 1b 0e     ....p...s.x.....
    2a88:	08 0a 0a 0b 01 00 3c 7e 66 60 30 7b ff ce ff 7b     ......<~f`0{...{
    2a98:	02 06 06 0b 04 06 c0 c0 c0 c0 80 80 04 0f 0f 0b     ................
    2aa8:	04 fd 30 30 60 60 c0 c0 c0 c0 c0 c0 c0 60 60 30     ..00``.......``0
    2ab8:	30 04 0f 0f 0b 02 fd c0 c0 60 60 30 30 30 30 30     0........``00000
    2ac8:	30 30 60 60 c0 c0 08 08 08 0b 01 04 18 18 ff ff     00``............
    2ad8:	18 7e e7 42 0a 0a 14 0b 00 00 0c 00 0c 00 0c 00     .~.B............
    2ae8:	0c 00 ff c0 ff c0 0c 00 0c 00 0c 00 0c 00 04 05     ................
    2af8:	05 0b 02 fd 30 30 60 40 80 08 02 02 0b 01 04 ff     ....00`@........
    2b08:	ff 02 02 02 0b 04 00 c0 c0 09 10 20 0b 00 fd 01     ........... ....
    2b18:	80 01 80 03 00 03 00 06 00 06 00 0c 00 0c 00 18     ................
    2b28:	00 18 00 30 00 30 00 60 00 60 00 c0 00 c0 00 08     ...0.0.`.`......
    2b38:	0c 0c 0b 01 00 3c 7e 66 c3 c3 c3 c3 c3 c3 66 7e     .....<~f......f~
    2b48:	3c 08 0c 0c 0b 01 00 18 f8 f8 18 18 18 18 18 18     <...............
    2b58:	18 ff ff 08 0c 0c 0b 01 00 3c 7e c7 c3 03 07 0e     .........<~.....
    2b68:	1c 38 70 ff ff 08 0c 0c 0b 01 00 3c 7e 66 06 0e     .8p........<~f..
    2b78:	3c 3e 07 03 c7 fe 7c 08 0c 0c 0b 01 00 0e 1e 3e     <>....|........>
    2b88:	36 66 66 c6 ff ff 06 1f 1f 08 0c 0c 0b 01 00 7f     6ff.............
    2b98:	7f 60 60 7e 7f 67 03 03 c7 fe 7c 08 0c 0c 0b 01     .``~.g....|.....
    2ba8:	00 0f 3f 70 60 dc fe e7 c3 c3 e7 7e 3c 08 0c 0c     ..?p`......~<...
    2bb8:	0b 01 00 ff ff c3 06 06 06 0c 0c 0c 18 18 18 08     ................
    2bc8:	0c 0c 0b 01 00 3c 7e e7 c3 66 3c 7e e7 c3 e7 7e     .....<~..f<~...~
    2bd8:	3c 08 0c 0c 0b 01 00 3c 7e c3 c3 c3 c7 7f 3b 03     <......<~.....;.
    2be8:	06 fe f8 02 08 08 0b 04 00 c0 c0 00 00 00 00 c0     ................
    2bf8:	c0 04 0b 0b 0b 02 fd 30 30 00 00 00 00 30 30 60     .......00....00`
    2c08:	40 80 09 09 12 0b 01 01 01 80 07 80 1e 00 78 00     @.............x.
    2c18:	e0 00 78 00 1e 00 07 80 01 80 0a 06 0c 0b 00 02     ..x.............
    2c28:	ff c0 ff c0 00 00 00 00 ff c0 ff c0 09 09 12 0b     ................
    2c38:	01 01 c0 00 f0 00 3c 00 0f 00 03 80 0f 00 3c 00     ......<.......<.
    2c48:	f0 00 c0 00 07 0b 0b 0b 02 00 7c fe c6 06 0e 3c     ..........|....<
    2c58:	30 30 00 30 30 09 0d 1a 0b 01 ff 3c 00 66 00 c3     00.00......<.f..
    2c68:	00 cf 00 db 00 db 00 db 00 db 00 cf 80 c0 00 c0     ................
    2c78:	00 63 00 3e 00 0c 0b 16 0b ff 00 3e 00 3f 00 0f     .c.>.......>.?..
    2c88:	00 19 80 19 80 19 80 3f c0 3f c0 30 c0 f9 f0 f9     .......?.?.0....
    2c98:	f0 0a 0b 16 0b 00 00 fe 00 ff 00 31 80 31 80 3f     ...........1.1.?
    2ca8:	00 3f 80 30 c0 30 c0 30 c0 ff 80 ff 00 0a 0b 16     .?.0.0.0........
    2cb8:	0b 00 00 1e c0 7f c0 71 c0 e0 c0 c0 00 c0 00 c0     .......q........
    2cc8:	00 e0 00 70 c0 7f c0 1f 00 0a 0b 16 0b 00 00 fe     ...p............
    2cd8:	00 ff 80 63 80 61 c0 60 c0 60 c0 60 c0 61 c0 63     ...c.a.`.`.`.a.c
    2ce8:	80 ff 80 fe 00 0a 0b 16 0b 00 00 ff c0 ff c0 30     ...............0
    2cf8:	c0 36 c0 3e 00 3e 00 36 00 30 c0 30 c0 ff c0 ff     .6.>.>.6.0.0....
    2d08:	c0 0a 0b 16 0b 00 00 ff c0 ff c0 30 c0 36 c0 3e     ...........0.6.>
    2d18:	00 3e 00 36 00 30 00 30 00 fe 00 fe 00 0b 0b 16     .>.6.0.0........
    2d28:	0b 00 00 1e c0 7f c0 71 c0 e0 c0 c0 00 c0 00 c7     .......q........
    2d38:	e0 e7 e0 70 c0 7f c0 1f 80 0a 0b 16 0b 00 00 f3     ...p............
    2d48:	c0 f3 c0 61 80 61 80 7f 80 7f 80 61 80 61 80 61     ...a.a.....a.a.a
    2d58:	80 f3 c0 f3 c0 08 0b 0b 0b 01 00 ff ff 18 18 18     ................
    2d68:	18 18 18 18 ff ff 0a 0b 16 0b 00 00 1f c0 1f c0     ................
    2d78:	03 00 03 00 03 00 03 00 c3 00 c3 00 c3 00 fe 00     ................
    2d88:	3c 00 0b 0b 16 0b 00 00 f7 c0 f7 c0 63 00 66 00     <...........c.f.
    2d98:	6c 00 7c 00 7e 00 67 00 63 80 f9 e0 f9 e0 0a 0b     l.|.~.g.c.......
    2da8:	16 0b 00 00 fc 00 fc 00 30 00 30 00 30 00 30 00     ........0.0.0.0.
    2db8:	30 c0 30 c0 30 c0 ff c0 ff c0 0a 0b 16 0b 00 00     0.0.0...........
    2dc8:	e1 c0 e1 c0 73 80 73 80 7f 80 6d 80 6d 80 6d 80     ....s.s...m.m.m.
    2dd8:	61 80 f3 c0 f3 c0 0a 0b 16 0b 00 00 e7 c0 f7 c0     a...............
    2de8:	71 80 79 80 69 80 6d 80 65 80 67 80 63 80 fb 80     q.y.i.m.e.g.c...
    2df8:	f9 80 0a 0b 16 0b 00 00 1e 00 7f 80 73 80 e1 c0     ............s...
    2e08:	c0 c0 c0 c0 c0 c0 e1 c0 73 80 7f 80 1e 00 0a 0b     ........s.......
    2e18:	16 0b 00 00 ff 00 ff 80 61 c0 60 c0 61 c0 7f 80     ........a.`.a...
    2e28:	7f 00 60 00 60 00 fc 00 fc 00 0a 0d 1a 0b 00 fe     ..`.`...........
    2e38:	1e 00 7f 80 73 80 e1 c0 c0 c0 c0 c0 c0 c0 e1 c0     ....s...........
    2e48:	73 80 7f 80 1e 40 3f c0 33 80 0b 0b 16 0b 00 00     s....@?.3.......
    2e58:	ff 00 ff 80 61 c0 60 c0 61 c0 7f 80 7f 00 63 80     ....a.`.a.....c.
    2e68:	61 c0 fc e0 fc e0 09 0b 16 0b 01 00 3d 80 ff 80     a...........=...
    2e78:	c3 80 c1 80 f8 00 7f 00 0f 80 c1 80 e1 80 ff 00     ................
    2e88:	de 00 0a 0b 16 0b 00 00 ff c0 ff c0 cc c0 cc c0     ................
    2e98:	cc c0 0c 00 0c 00 0c 00 0c 00 7f 80 7f 80 0a 0b     ................
    2ea8:	16 0b 00 00 f7 c0 f7 c0 61 80 61 80 61 80 61 80     ........a.a.a.a.
    2eb8:	61 80 61 80 73 80 3f 00 1e 00 0c 0b 16 0b ff 00     a.a.s.?.........
    2ec8:	f9 f0 f9 f0 60 60 60 60 30 c0 30 c0 19 80 19 80     ....````0.0.....
    2ed8:	0f 00 0f 00 06 00 0c 0b 16 0b ff 00 f9 f0 f9 f0     ................
    2ee8:	60 60 66 60 66 60 6f 60 6f 60 39 c0 39 c0 30 c0     ``f`f`o`o`9.9.0.
    2ef8:	30 c0 0a 0b 16 0b 00 00 f3 c0 f3 c0 61 80 33 00     0...........a.3.
    2f08:	1e 00 0c 00 1e 00 33 00 61 80 f3 c0 f3 c0 0a 0b     ......3.a.......
    2f18:	16 0b 00 00 f3 c0 f3 c0 61 80 33 00 3f 00 1e 00     ........a.3.?...
    2f28:	0c 00 0c 00 0c 00 3f 00 3f 00 08 0b 0b 0b 01 00     ......?.?.......
    2f38:	ff ff c7 ce 0c 18 30 73 e3 ff ff 04 0f 0f 0b 04     ......0s........
    2f48:	fd f0 f0 c0 c0 c0 c0 c0 c0 c0 c0 c0 c0 c0 f0 f0     ................
    2f58:	09 10 20 0b 01 fd c0 00 c0 00 60 00 60 00 30 00     .. .......`.`.0.
    2f68:	30 00 18 00 18 00 0c 00 0c 00 06 00 06 00 03 00     0...............
    2f78:	03 00 01 80 01 80 04 0f 0f 0b 02 fd f0 f0 30 30     ..............00
    2f88:	30 30 30 30 30 30 30 30 30 f0 f0 08 07 07 0b 01     000000000.......
    2f98:	05 18 3c 3c 66 66 c3 c3 0b 02 04 0b 00 fc ff e0     ..<<ff..........
    2fa8:	ff e0 04 03 03 0b 03 09 c0 60 30 0a 09 12 0b 00     .........`0.....
    2fb8:	00 3f 00 7f 80 61 80 01 80 7f 80 ff 80 c1 80 ff     .?...a..........
    2fc8:	c0 7d c0 0a 0c 18 0b 00 00 e0 00 e0 00 60 00 6f     .}...........`.o
    2fd8:	00 7f 80 71 c0 60 c0 60 c0 60 c0 71 c0 ff 80 ef     ...q.`.`.`.q....
    2fe8:	00 0a 09 12 0b 00 00 3d 80 7f 80 e3 80 c1 80 c0     .......=........
    2ff8:	00 c0 00 e1 c0 7f c0 3f 00 0a 0c 18 0b 00 00 03     .......?........
    3008:	80 03 80 01 80 3d 80 7f 80 e3 80 c1 80 c1 80 c1     .....=..........
    3018:	80 e3 80 7f c0 3d c0 0a 09 12 0b 00 00 1e 00 7f     .....=..........
    3028:	80 e1 c0 c0 c0 ff c0 ff c0 e0 00 7f c0 1f c0 09     ................
    3038:	0c 18 0b 01 00 1f 80 3f 80 30 00 ff 00 ff 00 30     .......?.0.....0
    3048:	00 30 00 30 00 30 00 30 00 ff 00 ff 00 0a 0d 1a     .0.0.0.0........
    3058:	0b 00 fc 3d c0 7f c0 e3 80 c1 80 c1 80 c1 80 e3     ...=............
    3068:	80 7f 80 3d 80 01 80 03 80 3f 00 3e 00 0a 0c 18     ...=.....?.>....
    3078:	0b 00 00 e0 00 e0 00 60 00 6f 00 7f 80 71 80 61     .......`.o...q.a
    3088:	80 61 80 61 80 61 80 f3 c0 f3 c0 08 0c 0c 0b 01     .a.a.a..........
    3098:	00 18 18 00 f8 f8 18 18 18 18 18 ff ff 07 10 10     ................
    30a8:	0b 01 fc 0c 0c 00 fe fe 06 06 06 06 06 06 06 06     ................
    30b8:	0e fc f8 0a 0c 18 0b 00 00 e0 00 e0 00 60 00 67     .............`.g
    30c8:	80 67 80 6e 00 7c 00 7c 00 6e 00 67 00 e3 c0 e3     .g.n.|.|.n.g....
    30d8:	c0 08 0c 0c 0b 01 00 f8 f8 18 18 18 18 18 18 18     ................
    30e8:	18 ff ff 0c 09 12 0b ff 00 ed c0 ff e0 77 60 66     .............w`f
    30f8:	60 66 60 66 60 66 60 f7 70 f7 70 0a 09 12 0b 00     `f`f`f`.p.p.....
    3108:	00 ef 00 ff 80 71 80 61 80 61 80 61 80 61 80 f3     .....q.a.a.a.a..
    3118:	c0 f3 c0 0a 09 12 0b 00 00 1e 00 7f 80 e1 c0 c0     ................
    3128:	c0 c0 c0 c0 c0 e1 c0 7f 80 1e 00 0a 0d 1a 0b 00     ................
    3138:	fc ef 00 ff 80 71 c0 60 c0 60 c0 60 c0 71 c0 7f     .....q.`.`.`.q..
    3148:	80 6f 00 60 00 60 00 f8 00 f8 00 0a 0d 1a 0b 00     .o.`.`..........
    3158:	fc 3d c0 7f c0 e3 80 c1 80 c1 80 c1 80 e3 80 7f     .=..............
    3168:	80 3d 80 01 80 01 80 07 c0 07 c0 0a 09 12 0b 00     .=..............
    3178:	00 f3 80 ff c0 3c c0 38 00 30 00 30 00 30 00 ff     .....<.8.0.0.0..
    3188:	00 ff 00 08 09 09 0b 01 00 7f ff c3 f0 7e 1f c3     .............~..
    3198:	ff fe 0a 0c 18 0b 00 00 30 00 30 00 30 00 ff 00     ........0.0.0...
    31a8:	ff 00 30 00 30 00 30 00 30 00 30 c0 3f c0 1f 00     ..0.0.0.0.0.?...
    31b8:	0a 09 12 0b 00 00 e7 80 e7 80 61 80 61 80 61 80     ..........a.a.a.
    31c8:	61 80 63 80 7f c0 3d c0 0a 09 12 0b 00 00 f3 c0     a.c...=.........
    31d8:	f3 c0 61 80 61 80 33 00 33 00 1e 00 1e 00 0c 00     ..a.a.3.3.......
    31e8:	0b 09 12 0b 00 00 f1 e0 f1 e0 64 c0 6e c0 6e c0     ..........d.n.n.
    31f8:	7b c0 3b 80 31 80 31 80 0b 09 12 0b 00 00 fb e0     {.;.1.1.........
    3208:	fb e0 31 80 1b 00 0e 00 1b 00 31 80 fb e0 fb e0     ..1.......1.....
    3218:	0a 0d 1a 0b 00 fc f3 c0 f3 c0 61 80 61 80 33 00     ..........a.a.3.
    3228:	33 00 1e 00 1e 00 0c 00 18 00 38 00 fc 00 fc 00     3.........8.....
    3238:	08 09 09 0b 01 00 ff ff c6 0c 18 30 63 ff ff 04     ...........0c...
    3248:	0f 0f 0b 03 fd 30 60 60 60 60 60 c0 60 60 60 60     .....0`````.````
    3258:	60 60 60 30 02 0e 0e 0b 04 fd c0 c0 c0 c0 c0 c0     ```0............
    3268:	c0 c0 c0 c0 c0 c0 c0 c0 04 0f 0f 0b 03 fd c0 60     ...............`
    3278:	60 60 60 60 30 60 60 60 60 60 60 60 c0 08 03 03     ````0```````....
    3288:	0b 01 04 73 ff de ff ff ff ff ff ff ff ff ff ff     ...s............
    3298:	ff ff ff ff ff ff ff ff ff ff ff ff ff ff ff ff     ................
    32a8:	ff ff ff ff ff ff ff 00 00 00 0b 00 01 03 0c 0c     ................
    32b8:	0b 04 fc c0 c0 00 c0 c0 e0 e0 e0 e0 e0 e0 e0 08     ................
    32c8:	0d 0d 0b 01 00 18 18 18 3f 7f e3 c0 c0 e3 7f 3e     ........?......>
    32d8:	18 18 0a 0b 16 0b 00 00 3e 00 7f 00 63 00 60 00     ........>...c.`.
    32e8:	30 00 fc 00 fc 00 30 00 60 c0 ff c0 ff 80 08 09     0.....0.`.......
    32f8:	09 0b 01 01 c3 ff 7e c3 c3 c3 7e ff c3 0a 0b 16     ......~...~.....
    3308:	0b 00 00 f3 c0 f3 c0 61 80 33 00 1e 00 3f 00 0c     .......a.3...?..
    3318:	00 3f 00 0c 00 3f 00 3f 00 02 10 10 0b 04 fd c0     .?...?.?........
    3328:	c0 c0 c0 c0 c0 c0 00 00 c0 c0 c0 c0 c0 c0 c0 08     ................
    3338:	0e 0e 0b 01 fe 3f 73 63 60 f8 de c7 e3 7b 1f 06     .....?sc`....{..
    3348:	c6 ce fc 06 02 02 0b 02 09 cc cc 0b 0c 18 0b 00     ................
    3358:	00 0e 00 3f 80 71 c0 6e c0 db 60 d8 60 d8 60 db     ...?.q.n..`.`.`.
    3368:	60 6e c0 71 c0 3f 80 0e 00 06 08 08 0b 02 03 70     `n.q.?.........p
    3378:	18 78 d8 d8 6c 00 fc 09 07 0e 0b 00 01 19 80 33     .x..l..........3
    3388:	00 66 00 cc 00 66 00 33 00 19 80 09 04 08 0b 01     .f...f.3........
    3398:	04 ff 80 ff 80 01 80 01 80 08 02 02 0b 01 04 ff     ................
    33a8:	ff 0b 0c 18 0b 00 00 0e 00 3f 80 71 c0 7e c0 db     .........?.q.~..
    33b8:	60 db 60 de 60 df 60 7b e0 70 c0 3f 80 0e 00 05     `.`.`.`{.p.?....
    33c8:	02 02 0b 02 09 f8 f8 05 05 05 0b 02 06 70 88 88     .............p..
    33d8:	88 70 0a 0a 14 0b 00 00 0c 00 0c 00 0c 00 ff c0     .p..............
    33e8:	ff c0 0c 00 0c 00 00 00 ff c0 ff c0 06 07 07 0b     ................
    33f8:	02 05 78 cc 0c 18 30 64 fc 06 07 07 0b 02 05 78     ..x...0d.......x
    3408:	cc 0c 38 0c cc 78 04 03 03 0b 04 09 30 60 c0 0a     ..8..x......0`..
    3418:	0d 1a 0b 00 fc e7 80 e7 80 61 80 61 80 61 80 61     .........a.a.a.a
    3428:	80 63 80 7f c0 7d c0 60 00 60 00 60 00 60 00 08     .c...}.`.`.`.`..
    3438:	0e 0e 0b 01 fe 3f 6a ca ca ca 6a 3a 0a 0a 0a 0a     .....?j...j:....
    3448:	0a 0a 3b 02 03 03 0b 04 03 c0 c0 c0 04 05 05 0b     ..;.............
    3458:	03 fc 40 60 30 f0 e0 06 07 07 0b 02 05 30 f0 30     ..@`0........0.0
    3468:	30 30 30 fc 06 08 08 0b 02 03 78 cc 84 84 cc 78     000.......x....x
    3478:	00 fc 09 07 0e 0b 01 01 cc 00 66 00 33 00 19 80     ..........f.3...
    3488:	33 00 66 00 cc 00 0b 0c 18 0b 00 00 30 00 f0 20     3.f.........0.. 
    3498:	30 60 30 c0 31 80 33 40 fe c0 0d c0 1a c0 34 c0     0`0.1.3@......4.
    34a8:	67 e0 40 c0 0b 0c 18 0b 00 00 30 00 f0 20 30 60     g.@.......0.. 0`
    34b8:	30 c0 31 80 33 c0 ff 60 0c 60 18 c0 31 80 63 20     0.1.3..`.`..1.c 
    34c8:	47 e0 0b 0c 18 0b 00 00 78 00 cc 20 0c 60 38 c0     G.......x.. .`8.
    34d8:	0d 80 cf 40 7e c0 0d c0 1a c0 34 c0 67 e0 40 c0     ...@~.....4.g.@.
    34e8:	07 0c 0c 0b 02 fc 18 18 00 18 18 18 78 e0 c0 c6     ............x...
    34f8:	fe 7c 0c 0f 1e 0b ff 00 18 00 0c 00 06 00 00 00     .|..............
    3508:	3e 00 3f 00 0f 00 0f 00 19 80 19 80 3f c0 3f c0     >.?.........?.?.
    3518:	30 c0 f9 f0 f9 f0 0c 0f 1e 0b ff 00 03 00 06 00     0...............
    3528:	0c 00 00 00 3e 00 3f 00 0f 00 0f 00 19 80 19 80     ....>.?.........
    3538:	3f c0 3f c0 30 c0 f9 f0 f9 f0 0c 0f 1e 0b ff 00     ?.?.0...........
    3548:	06 00 0f 00 19 80 00 00 3e 00 3f 00 0f 00 0f 00     ........>.?.....
    3558:	19 80 19 80 3f c0 3f c0 30 c0 f9 f0 f9 f0 0c 0e     ....?.?.0.......
    3568:	1c 0b ff 00 1d 80 37 00 00 00 3e 00 3f 00 0f 00     ......7...>.?...
    3578:	0f 00 19 80 19 80 3f c0 3f c0 30 c0 f9 f0 f9 f0     ......?.?.0.....
    3588:	0c 0e 1c 0b ff 00 19 80 19 80 00 00 3e 00 3f 00     ............>.?.
    3598:	0f 00 0f 00 19 80 19 80 3f c0 3f c0 30 c0 f9 f0     ........?.?.0...
    35a8:	f9 f0 0c 0f 1e 0b ff 00 06 00 09 00 09 00 06 00     ................
    35b8:	3e 00 3f 00 0f 00 0f 00 19 80 19 80 3f c0 3f c0     >.?.........?.?.
    35c8:	30 c0 f9 f0 f9 f0 0b 0b 16 0b 00 00 3f e0 3f e0     0...........?.?.
    35d8:	1e 60 36 00 37 c0 27 c0 7e 00 7e 00 66 60 ef e0     .`6.7.'.~.~.f`..
    35e8:	ef e0 0a 10 20 0b 00 fb 1e c0 7f c0 61 c0 c0 c0     .... .......a...
    35f8:	c0 00 c0 00 c0 00 c0 00 60 c0 7f c0 3f 00 08 00     ........`...?...
    3608:	0c 00 02 00 1e 00 1c 00 0a 0f 1e 0b 00 00 18 00     ................
    3618:	0c 00 06 00 00 00 ff c0 ff c0 30 c0 36 c0 3e 00     ..........0.6.>.
    3628:	3e 00 36 00 30 c0 30 c0 ff c0 ff c0 0a 0f 1e 0b     >.6.0.0.........
    3638:	00 00 03 00 06 00 0c 00 00 00 ff c0 ff c0 30 c0     ..............0.
    3648:	36 c0 3e 00 3e 00 36 00 30 c0 30 c0 ff c0 ff c0     6.>.>.6.0.0.....
    3658:	0a 0f 1e 0b 00 00 0c 00 1e 00 33 00 00 00 ff c0     ..........3.....
    3668:	ff c0 30 c0 36 c0 3e 00 3e 00 36 00 30 c0 30 c0     ..0.6.>.>.6.0.0.
    3678:	ff c0 ff c0 0a 0e 1c 0b 00 00 33 00 33 00 00 00     ..........3.3...
    3688:	ff c0 ff c0 30 c0 36 c0 3e 00 3e 00 36 00 30 c0     ....0.6.>.>.6.0.
    3698:	30 c0 ff c0 ff c0 08 0f 0f 0b 01 00 60 30 18 00     0...........`0..
    36a8:	ff ff 18 18 18 18 18 18 18 ff ff 08 0f 0f 0b 01     ................
    36b8:	00 06 0c 18 00 ff ff 18 18 18 18 18 18 18 ff ff     ................
    36c8:	08 0f 0f 0b 01 00 18 3c 66 00 ff ff 18 18 18 18     .......<f.......
    36d8:	18 18 18 ff ff 08 0e 0e 0b 01 00 66 66 00 ff ff     ...........ff...
    36e8:	18 18 18 18 18 18 18 ff ff 0a 0b 16 0b 00 00 fe     ................
    36f8:	00 ff 80 61 80 60 c0 f8 c0 f8 c0 60 c0 60 c0 61     ...a.`.....`.`.a
    3708:	80 ff 80 fe 00 0a 0e 1c 0b 00 00 3b 00 6e 00 00     ...........;.n..
    3718:	00 e7 c0 f7 c0 71 80 79 80 69 80 6d 80 65 80 67     .....q.y.i.m.e.g
    3728:	80 63 80 fb 80 f9 80 0a 0f 1e 0b 00 00 18 00 0c     .c..............
    3738:	00 06 00 00 00 1e 00 7f 80 61 80 c0 c0 c0 c0 c0     .........a......
    3748:	c0 c0 c0 c0 c0 61 80 7f 80 1e 00 0a 0f 1e 0b 00     .....a..........
    3758:	00 03 00 06 00 0c 00 00 00 1e 00 7f 80 61 80 c0     .............a..
    3768:	c0 c0 c0 c0 c0 c0 c0 c0 c0 61 80 7f 80 1e 00 0a     .........a......
    3778:	0f 1e 0b 00 00 0c 00 1e 00 33 00 00 00 1e 00 7f     .........3......
    3788:	80 61 80 c0 c0 c0 c0 c0 c0 c0 c0 c0 c0 61 80 7f     .a...........a..
    3798:	80 1e 00 0a 0e 1c 0b 00 00 3b 00 6e 00 00 00 1e     .........;.n....
    37a8:	00 7f 80 61 80 c0 c0 c0 c0 c0 c0 c0 c0 c0 c0 61     ...a...........a
    37b8:	80 7f 80 1e 00 0a 0e 1c 0b 00 00 33 00 33 00 00     ...........3.3..
    37c8:	00 1e 00 7f 80 61 80 c0 c0 c0 c0 c0 c0 c0 c0 c0     .....a..........
    37d8:	c0 61 80 7f 80 1e 00 0a 0a 14 0b 00 00 40 80 e1     .a...........@..
    37e8:	c0 73 80 37 00 1e 00 1e 00 3b 00 73 80 e1 c0 40     .s.7.....;.s...@
    37f8:	80 0c 0d 1a 0b ff ff 00 30 0f 60 3f c0 31 c0 63     ........0.`?.1.c
    3808:	60 66 60 66 60 6c 60 78 60 30 c0 3f c0 6f 00 c0     `f`f`l`x`0.?.o..
    3818:	00 0a 0f 1e 0b 00 00 30 00 18 00 0c 00 00 00 fb     .......0........
    3828:	c0 fb c0 61 80 61 80 61 80 61 80 61 80 61 80 73     ...a.a.a.a.a.a.s
    3838:	80 3f 00 1e 00 0a 0f 1e 0b 00 00 03 00 06 00 0c     .?..............
    3848:	00 00 00 fb c0 fb c0 61 80 61 80 61 80 61 80 61     .......a.a.a.a.a
    3858:	80 61 80 73 80 3f 00 1e 00 0a 0f 1e 0b 00 00 0c     .a.s.?..........
    3868:	00 1e 00 33 00 00 00 fb c0 fb c0 61 80 61 80 61     ...3.......a.a.a
    3878:	80 61 80 61 80 61 80 73 80 3f 00 1e 00 0a 0e 1c     .a.a.a.s.?......
    3888:	0b 00 00 33 00 33 00 00 00 fb c0 fb c0 61 80 61     ...3.3.......a.a
    3898:	80 61 80 61 80 61 80 61 80 73 80 3f 00 1e 00 0a     .a.a.a.a.s.?....
    38a8:	0f 1e 0b 00 00 03 00 06 00 0c 00 00 00 f3 c0 f3     ................
    38b8:	c0 61 80 33 00 3f 00 1e 00 0c 00 0c 00 0c 00 3f     .a.3.?.........?
    38c8:	00 3f 00 0a 0b 16 0b 00 00 f0 00 e0 00 7f 00 7f     .?..............
    38d8:	80 61 c0 60 c0 61 c0 7f 80 7f 00 e0 00 f0 00 09     .a.`.a..........
    38e8:	0c 18 0b 01 00 3c 00 7e 00 63 00 63 00 67 00 6e     .....<.~.c.c.g.n
    38f8:	00 67 00 61 80 61 80 69 80 ef 80 e7 00 0a 0d 1a     .g.a.a.i........
    3908:	0b 00 00 18 00 0c 00 06 00 00 00 3f 00 7f 80 61     ...........?...a
    3918:	80 01 80 7f 80 ff 80 c1 80 ff c0 7d c0 0a 0d 1a     ...........}....
    3928:	0b 00 00 03 00 06 00 0c 00 00 00 3f 00 7f 80 61     ...........?...a
    3938:	80 01 80 7f 80 ff 80 c1 80 ff c0 7d c0 0a 0d 1a     ...........}....
    3948:	0b 00 00 0c 00 1e 00 33 00 00 00 3f 00 7f 80 61     .......3...?...a
    3958:	80 01 80 7f 80 ff 80 c1 80 ff c0 7d c0 0a 0c 18     ...........}....
    3968:	0b 00 00 3b 00 6e 00 00 00 3f 00 7f 80 61 80 01     ...;.n...?...a..
    3978:	80 7f 80 ff 80 c1 80 ff c0 7d c0 0a 0c 18 0b 00     .........}......
    3988:	00 33 00 33 00 00 00 3f 00 7f 80 61 80 01 80 7f     .3.3...?...a....
    3998:	80 ff 80 c1 80 ff c0 7d c0 0a 0e 1c 0b 00 00 0c     .......}........
    39a8:	00 12 00 12 00 0c 00 00 00 3f 00 7f 80 61 80 01     .........?...a..
    39b8:	80 7f 80 ff 80 c1 80 ff c0 7d c0 0a 09 12 0b 00     .........}......
    39c8:	00 7b 80 ff c0 cc c0 0c c0 7f c0 ff c0 cc 00 ff     .{..............
    39d8:	c0 7b 80 0a 0e 1c 0b 00 fb 3d 80 7f 80 e3 80 c1     .{.......=......
    39e8:	80 c0 00 c0 00 e1 c0 7f c0 3f 00 08 00 0c 00 06     .........?......
    39f8:	00 1e 00 1c 00 0a 0d 1a 0b 00 00 18 00 0c 00 06     ................
    3a08:	00 00 00 1e 00 7f 80 e1 c0 c0 c0 ff c0 ff c0 e0     ................
    3a18:	00 7f c0 1f c0 0a 0d 1a 0b 00 00 03 00 06 00 0c     ................
    3a28:	00 00 00 1e 00 7f 80 e1 c0 c0 c0 ff c0 ff c0 e0     ................
    3a38:	00 7f c0 1f c0 0a 0d 1a 0b 00 00 0c 00 1e 00 33     ...............3
    3a48:	00 00 00 1e 00 7f 80 e1 c0 c0 c0 ff c0 ff c0 e0     ................
    3a58:	00 7f c0 1f c0 0a 0c 18 0b 00 00 33 00 33 00 00     ...........3.3..
    3a68:	00 1e 00 7f 80 e1 c0 c0 c0 ff c0 ff c0 e0 00 7f     ................
    3a78:	c0 1f c0 08 0d 0d 0b 01 00 30 18 0c 00 f8 f8 18     .........0......
    3a88:	18 18 18 18 ff ff 08 0d 0d 0b 01 00 0c 18 30 00     ..............0.
    3a98:	f8 f8 18 18 18 18 18 ff ff 08 0d 0d 0b 01 00 18     ................
    3aa8:	3c 66 00 f8 f8 18 18 18 18 18 ff ff 08 0c 0c 0b     <f..............
    3ab8:	01 00 cc cc 00 f8 f8 18 18 18 18 18 ff ff 0a 0d     ................
    3ac8:	1a 0b 00 00 e1 80 fb 80 3e 00 77 00 c3 80 3f 80     ........>.w...?.
    3ad8:	61 c0 c0 c0 c0 c0 c0 c0 e1 c0 7f 80 1e 00 0a 0c     a...............
    3ae8:	18 0b 00 00 3b 00 6e 00 00 00 ef 00 ff 80 71 80     ....;.n.......q.
    3af8:	61 80 61 80 61 80 61 80 f3 c0 f3 c0 0a 0d 1a 0b     a.a.a.a.........
    3b08:	00 00 18 00 0c 00 06 00 00 00 1e 00 7f 80 e1 c0     ................
    3b18:	c0 c0 c0 c0 c0 c0 e1 c0 7f 80 1e 00 0a 0d 1a 0b     ................
    3b28:	00 00 03 00 06 00 0c 00 00 00 1e 00 7f 80 e1 c0     ................
    3b38:	c0 c0 c0 c0 c0 c0 e1 c0 7f 80 1e 00 0a 0d 1a 0b     ................
    3b48:	00 00 0c 00 1e 00 33 00 00 00 1e 00 7f 80 e1 c0     ......3.........
    3b58:	c0 c0 c0 c0 c0 c0 e1 c0 7f 80 1e 00 0a 0c 18 0b     ................
    3b68:	00 00 3b 00 6e 00 00 00 1e 00 7f 80 e1 c0 c0 c0     ..;.n...........
    3b78:	c0 c0 c0 c0 e1 c0 7f 80 1e 00 0a 0c 18 0b 00 00     ................
    3b88:	33 00 33 00 00 00 1e 00 7f 80 e1 c0 c0 c0 c0 c0     3.3.............
    3b98:	c0 c0 e1 c0 7f 80 1e 00 0a 0a 14 0b 00 00 0c 00     ................
    3ba8:	0c 00 00 00 00 00 ff c0 ff c0 00 00 00 00 0c 00     ................
    3bb8:	0c 00 0c 0b 16 0b ff ff 00 30 0f 60 3f c0 71 e0     .........0.`?.q.
    3bc8:	63 60 66 60 6c 60 78 e0 3f c0 6f 00 c0 00 0a 0d     c`f`l`x.?.o.....
    3bd8:	1a 0b 00 00 18 00 0c 00 06 00 00 00 e7 80 e7 80     ................
    3be8:	61 80 61 80 61 80 61 80 63 80 7f c0 3d c0 0a 0d     a.a.a.a.c...=...
    3bf8:	1a 0b 00 00 06 00 0c 00 18 00 00 00 e7 80 e7 80     ................
    3c08:	61 80 61 80 61 80 61 80 63 80 7f c0 3d c0 0a 0d     a.a.a.a.c...=...
    3c18:	1a 0b 00 00 0c 00 1e 00 33 00 00 00 e7 80 e7 80     ........3.......
    3c28:	61 80 61 80 61 80 61 80 63 80 7f c0 3d c0 0a 0c     a.a.a.a.c...=...
    3c38:	18 0b 00 00 33 00 33 00 00 00 e7 80 e7 80 61 80     ....3.3.......a.
    3c48:	61 80 61 80 61 80 63 80 7f c0 3d c0 0a 11 22 0b     a.a.a.c...=...".
    3c58:	00 fc 03 00 06 00 0c 00 00 00 f3 c0 f3 c0 61 80     ..............a.
    3c68:	61 80 33 00 33 00 1e 00 1e 00 0c 00 18 00 38 00     a.3.3.........8.
    3c78:	fc 00 fc 00 0a 10 20 0b 00 fc e0 00 e0 00 60 00     ...... .......`.
    3c88:	6f 00 7f 80 71 c0 60 c0 60 c0 60 c0 71 c0 7f 80     o...q.`.`.`.q...
    3c98:	6f 00 60 00 60 00 f8 00 f8 00 0a 10 20 0b 00 fc     o.`.`....... ...
    3ca8:	33 00 33 00 00 00 f3 c0 f3 c0 61 80 61 80 33 00     3.3.......a.a.3.
    3cb8:	33 00 1e 00 1e 00 0c 00 18 00 38 00 fc 00 fc 00     3.........8.....

00003cc8 <u8g_font_courB10>:
    3cc8:	00 0d 15 fe fa 09 01 de 04 20 20 ff fd 0c fc 0a     .........  .....
    3cd8:	fd 00 00 00 09 00 01 02 09 09 09 03 00 c0 c0 c0     ................
    3ce8:	c0 c0 80 00 c0 c0 05 04 04 09 02 06 d8 d8 d8 48     ...............H
    3cf8:	07 0b 0b 09 01 ff 28 28 28 fe 28 28 fe 28 28 28     ......(((.((.(((
    3d08:	28 06 0c 0c 09 01 ff 30 30 7c cc c0 f0 3c 0c cc     (......00|...<..
    3d18:	f8 30 30 07 0a 0a 09 01 00 60 90 92 6c 10 60 98     .00......`..l.`.
    3d28:	24 24 18 07 08 08 09 01 00 38 60 60 30 7a cc cc     $$.......8``0z..
    3d38:	76 02 04 04 09 03 05 c0 c0 c0 40 04 0b 0b 09 02     v.........@.....
    3d48:	fe 30 60 60 c0 c0 c0 c0 c0 60 60 30 04 0b 0b 09     .0``.....``0....
    3d58:	02 fe c0 60 60 30 30 30 30 30 60 60 c0 05 05 05     ...``00000``....
    3d68:	09 02 04 20 a8 f8 70 d8 07 07 07 09 01 01 10 10     ... ..p.........
    3d78:	10 fe 10 10 10 03 04 04 09 02 fe 60 60 c0 80 06     ...........``...
    3d88:	01 01 09 01 04 fc 02 02 02 09 03 00 c0 c0 07 0c     ................
    3d98:	0c 09 00 fe 06 06 0c 0c 18 18 30 30 60 60 c0 c0     ..........00``..
    3da8:	07 0a 0a 09 01 00 38 6c c6 c6 c6 c6 c6 c6 6c 38     ......8l......l8
    3db8:	06 0a 0a 09 02 00 30 f0 30 30 30 30 30 30 30 fc     ......0.0000000.
    3dc8:	06 0a 0a 09 01 00 78 cc cc 0c 0c 18 30 60 c0 fc     ......x.....0`..
    3dd8:	06 0a 0a 09 01 00 78 cc 0c 0c 38 0c 0c 0c cc 78     ......x...8....x
    3de8:	07 0a 0a 09 01 00 0c 1c 3c 2c 4c cc 8c fe 0c 1e     ........<,L.....
    3df8:	06 0a 0a 09 01 00 fc c0 c0 f8 cc 0c 0c 0c cc 78     ...............x
    3e08:	06 0a 0a 09 01 00 3c 60 c0 d8 ec cc cc cc cc 78     ......<`.......x
    3e18:	06 0a 0a 09 01 00 fc 8c 0c 18 18 18 18 30 30 30     .............000
    3e28:	06 0a 0a 09 01 00 78 cc cc cc 78 cc cc cc cc 78     ......x...x....x
    3e38:	06 0a 0a 09 01 00 78 cc cc cc cc cc 7c 0c 18 f0     ......x.....|...
    3e48:	02 07 07 09 03 00 c0 c0 00 00 00 c0 c0 03 09 09     ................
    3e58:	09 02 fe 60 60 00 00 00 60 60 c0 80 08 07 07 09     ...``...``......
    3e68:	00 01 07 1c 70 c0 70 1c 07 07 04 04 09 01 02 fe     ....p.p.........
    3e78:	00 00 fe 08 07 07 09 01 01 e0 38 0e 03 0e 38 e0     ..........8...8.
    3e88:	06 09 09 09 01 00 f8 cc 8c 0c 38 30 00 30 30 07     ..........80.00.
    3e98:	09 09 09 01 00 78 c4 9c b4 a4 b4 9e c0 78 09 09     .....x.......x..
    3ea8:	12 09 00 00 7c 00 1c 00 36 00 36 00 22 00 63 00     ....|...6.6.".c.
    3eb8:	7f 00 63 00 f7 80 08 09 09 09 00 00 fe 63 63 63     ..c..........ccc
    3ec8:	7e 63 63 63 fe 07 09 09 09 01 00 3a 66 c6 c0 c0     ~ccc.......:f...
    3ed8:	c0 c0 66 3c 08 09 09 09 00 00 fc 66 63 63 63 63     ..f<.......fcccc
    3ee8:	63 66 fc 08 09 09 09 00 00 ff 63 63 68 78 68 63     cf........cchxhc
    3ef8:	63 ff 08 09 09 09 00 00 ff 63 63 68 78 68 60 60     c........cchxh``
    3f08:	f8 09 09 12 09 00 00 3d 00 67 00 c3 00 c0 00 c0     .......=.g......
    3f18:	00 cf 80 c3 00 63 00 3f 00 09 09 12 09 00 00 f7     .....c.?........
    3f28:	80 63 00 63 00 63 00 7f 00 63 00 63 00 63 00 f7     .c.c.c...c.c.c..
    3f38:	80 06 09 09 09 01 00 fc 30 30 30 30 30 30 30 fc     ........0000000.
    3f48:	09 09 12 09 00 00 1f 80 06 00 06 00 06 00 06 00     ................
    3f58:	c6 00 c6 00 c6 00 7c 00 09 09 12 09 00 00 f7 00     ......|.........
    3f68:	66 00 6c 00 78 00 7c 00 66 00 66 00 63 00 f3 80     f.l.x.|.f.f.c...
    3f78:	08 09 09 09 00 00 f8 60 60 60 60 63 63 63 ff 09     .......````ccc..
    3f88:	09 12 09 00 00 e3 80 63 00 77 00 77 00 6b 00 6b     .......c.w.w.k.k
    3f98:	00 63 00 63 00 f7 80 09 09 12 09 00 00 e7 80 63     .c.c...........c
    3fa8:	00 73 00 73 00 6b 00 6b 00 67 00 67 00 f3 00 08     .s.s.k.k.g.g....
    3fb8:	09 09 09 00 00 3c 66 c3 c3 c3 c3 c3 66 3c 08 09     .....<f.....f<..
    3fc8:	09 09 00 00 fe 63 63 63 66 7c 60 60 f8 08 0b 0b     .....cccf|``....
    3fd8:	09 00 fe 3c 66 c3 c3 c3 c3 c3 66 3c 19 6e 09 09     ...<f.....f<.n..
    3fe8:	12 09 00 00 fe 00 63 00 63 00 63 00 66 00 7c 00     ......c.c.c.f.|.
    3ff8:	66 00 63 00 f3 80 07 09 09 09 01 00 7a ce c6 e0     f.c.........z...
    4008:	7c 0e c6 e6 bc 08 09 09 09 00 00 ff db db 18 18     |...............
    4018:	18 18 18 3c 09 09 12 09 00 00 f7 80 63 00 63 00     ...<........c.c.
    4028:	63 00 63 00 63 00 63 00 63 00 3e 00 09 09 12 09     c.c.c.c.c.>.....
    4038:	00 00 f7 80 63 00 63 00 63 00 36 00 36 00 36 00     ....c.c.c.6.6.6.
    4048:	1c 00 1c 00 09 09 12 09 00 00 f7 80 63 00 6b 00     ............c.k.
    4058:	6b 00 6b 00 77 00 77 00 63 00 63 00 08 09 09 09     k.k.w.w.c.c.....
    4068:	00 00 e7 66 66 3c 18 3c 66 66 e7 0a 09 12 09 ff     ...ff<.<ff......
    4078:	00 f3 c0 61 80 33 00 33 00 1e 00 0c 00 0c 00 0c     ...a.3.3........
    4088:	00 3f 00 07 09 09 09 01 00 fe c6 cc 18 18 30 66     .?............0f
    4098:	c6 fe 04 0b 0b 09 02 fe f0 c0 c0 c0 c0 c0 c0 c0     ................
    40a8:	c0 c0 f0 07 0c 0c 09 01 fe c0 c0 60 60 30 30 18     ...........``00.
    40b8:	18 0c 0c 06 06 04 0b 0b 09 02 fe f0 30 30 30 30     ............0000
    40c8:	30 30 30 30 30 f0 05 04 04 09 02 05 20 70 d8 88     00000....... p..
    40d8:	09 01 02 09 00 fe ff 80 03 02 02 09 02 07 c0 60     ...............`
    40e8:	08 07 07 09 00 00 7c 06 06 7e c6 ce 77 08 0a 0a     ......|..~..w...
    40f8:	09 00 00 e0 60 60 6e 73 63 63 63 73 ee 08 07 07     ....``nscccs....
    4108:	09 00 00 3d 67 c3 c0 c0 63 3e 08 0a 0a 09 00 00     ...=g...c>......
    4118:	0e 06 06 76 ce c6 c6 c6 ce 77 08 07 07 09 00 00     ...v.....w......
    4128:	3c 66 c3 ff c0 67 3e 07 0a 0a 09 01 00 1e 30 30     <f...g>.......00
    4138:	fc 30 30 30 30 30 fc 08 0a 0a 09 00 fd 77 ce c6     .00000.......w..
    4148:	c6 c6 ce 76 06 06 7c 09 0a 14 09 00 00 e0 00 60     ...v..|........`
    4158:	00 60 00 6e 00 73 00 63 00 63 00 63 00 63 00 f7     .`.n.s.c.c.c.c..
    4168:	80 06 0a 0a 09 01 00 30 30 00 f0 30 30 30 30 30     .......00..00000
    4178:	fc 05 0d 0d 09 01 fd 18 18 00 78 18 18 18 18 18     ..........x.....
    4188:	18 18 18 f0 08 0a 0a 09 00 00 e0 60 60 67 6c 78     ...........``glx
    4198:	78 6c 66 e7 06 0a 0a 09 01 00 f0 30 30 30 30 30     xlf........00000
    41a8:	30 30 30 fc 09 07 0e 09 00 00 df 00 6d 80 6d 80     000.........m.m.
    41b8:	6d 80 6d 80 6d 80 ed 80 09 07 0e 09 00 00 ee 00     m.m.m...........
    41c8:	73 00 63 00 63 00 63 00 63 00 f7 80 08 07 07 09     s.c.c.c.c.......
    41d8:	00 00 3c 66 c3 c3 c3 66 3c 08 0a 0a 09 00 fd ee     ..<f...f<.......
    41e8:	73 63 63 63 73 6e 60 60 f0 08 0a 0a 09 00 fd 77     scccsn``.......w
    41f8:	ce c6 c6 c6 ce 76 06 06 0f 07 07 07 09 01 00 ee     .....v..........
    4208:	70 60 60 60 60 fc 07 07 07 09 01 00 7e c6 c0 7c     p````.......~..|
    4218:	06 c6 fc 07 09 09 09 01 00 60 60 fc 60 60 60 60     .........``.````
    4228:	66 3c 09 07 0e 09 00 00 e7 00 63 00 63 00 63 00     f<........c.c.c.
    4238:	63 00 67 00 3b 80 09 07 0e 09 00 00 f7 80 63 00     c.g.;.........c.
    4248:	63 00 36 00 36 00 1c 00 1c 00 0a 07 0e 09 ff 00     c.6.6...........
    4258:	e1 c0 6d 80 6d 80 6d 80 2d 00 33 00 33 00 08 07     ..m.m.m.-.3.3...
    4268:	07 09 00 00 e7 66 3c 18 3c 66 e7 09 0a 14 09 00     .....f<.<f......
    4278:	fd e3 80 63 00 63 00 36 00 36 00 1c 00 1c 00 18     ...c.c.6.6......
    4288:	00 18 00 7c 00 06 07 07 09 01 00 fc 8c 18 30 60     ...|..........0`
    4298:	c4 fc 04 0b 0b 09 02 fe 30 60 60 60 60 c0 60 60     ........0````.``
    42a8:	60 60 30 02 0b 0b 09 03 fe c0 c0 c0 c0 c0 c0 c0     ``0.............
    42b8:	c0 c0 c0 c0 04 0b 0b 09 02 fe c0 60 60 60 60 30     ...........````0
    42c8:	60 60 60 60 c0 06 03 03 09 01 03 64 fc 98 ff ff     ````.......d....
    42d8:	ff ff ff ff ff ff ff ff ff ff ff ff ff ff ff ff     ................
    42e8:	ff ff ff ff ff ff ff ff ff ff ff ff ff ff ff 00     ................
    42f8:	00 00 09 00 01 02 09 09 09 03 fe c0 c0 00 80 c0     ................
    4308:	c0 c0 c0 c0 06 0a 0a 09 01 ff 30 30 7c cc c0 c0     ..........00|...
    4318:	cc 78 30 30 07 09 09 09 01 00 3c 66 60 60 f8 60     .x00......<f``.`
    4328:	60 66 fc 07 06 06 09 01 01 c6 7c c6 c6 7c c6 0a     `f........|..|..
    4338:	09 12 09 00 00 f3 c0 61 80 33 00 1e 00 3f 00 0c     .......a.3...?..
    4348:	00 3f 00 0c 00 3f 00 02 0b 0b 09 03 fe c0 c0 c0     .?...?..........
    4358:	c0 c0 00 c0 c0 c0 c0 c0 08 0b 0b 09 00 ff 3e 62     ..............>b
    4368:	60 f0 8c e3 39 0f 06 46 7c 04 02 02 09 02 08 90     `...9..F|.......
    4378:	90 09 08 10 09 00 01 1c 00 63 00 cd 80 d1 80 d1     .........c......
    4388:	80 cd 80 63 00 1c 00 05 07 07 09 02 02 70 18 78     ...c.........p.x
    4398:	d8 68 00 f8 07 05 05 09 01 01 36 6c d8 6c 36 07     .h........6l.l6.
    43a8:	03 03 09 01 02 fe 02 02 06 01 01 09 01 04 fc 09     ................
    43b8:	08 10 09 00 01 3e 00 63 00 d9 80 d5 80 d9 80 d5     .....>.c........
    43c8:	80 63 00 3e 00 04 01 01 09 02 08 f0 04 04 04 09     .c.>............
    43d8:	02 05 60 90 90 60 07 07 07 09 01 01 10 10 fe 10     ..`..`..........
    43e8:	10 00 fe 05 06 06 09 02 04 70 98 18 30 60 f8 05     .........p..0`..
    43f8:	06 06 09 02 04 70 98 30 18 98 70 03 02 02 09 03     .....p.0..p.....
    4408:	07 60 c0 09 0a 14 09 00 fd e7 00 63 00 63 00 63     .`.........c.c.c
    4418:	00 63 00 67 00 7b 80 60 00 60 00 60 00 07 0b 0b     .c.g.{.`.`.`....
    4428:	09 01 ff 7e d4 94 94 d4 74 14 14 14 14 7e 02 02     ...~....t....~..
    4438:	02 09 03 03 c0 c0 03 04 04 09 02 fd 40 60 20 e0     ............@` .
    4448:	04 06 06 09 03 04 60 e0 60 60 60 f0 05 07 07 09     ......`.```.....
    4458:	02 02 70 d8 88 d8 70 00 f8 07 05 05 09 01 01 d8     ..p...p.........
    4468:	6c 36 6c d8 09 0a 14 09 00 00 60 00 e0 80 61 00     l6l.......`...a.
    4478:	62 00 65 00 fb 00 17 00 2b 00 4f 80 83 00 09 0a     b.e.....+.O.....
    4488:	14 09 00 00 60 00 e0 80 61 00 62 00 67 00 fd 80     ....`...a.b.g...
    4498:	11 80 23 00 46 00 0f 80 0a 0a 14 09 ff 00 70 00     ..#.F.........p.
    44a8:	98 40 30 80 19 00 9a 80 75 80 0b 80 15 80 27 c0     .@0.....u.....'.
    44b8:	41 80 06 09 09 09 01 fe 30 30 00 30 70 c0 c4 cc     A.......00.0p...
    44c8:	7c 09 0c 18 09 00 00 18 00 0c 00 00 00 7c 00 1c     |............|..
    44d8:	00 36 00 36 00 22 00 63 00 7f 00 63 00 f7 80 09     .6.6.".c...c....
    44e8:	0c 18 09 00 00 0c 00 18 00 00 00 7c 00 1c 00 36     ...........|...6
    44f8:	00 36 00 22 00 63 00 7f 00 63 00 f7 80 09 0c 18     .6.".c...c......
    4508:	09 00 00 1c 00 36 00 00 00 7c 00 1c 00 36 00 36     .....6...|...6.6
    4518:	00 22 00 63 00 7f 00 63 00 f7 80 09 0c 18 09 00     .".c...c........
    4528:	00 1a 00 2c 00 00 00 7c 00 1c 00 36 00 36 00 22     ...,...|...6.6."
    4538:	00 63 00 7f 00 63 00 f7 80 09 0c 18 09 00 00 24     .c...c.........$
    4548:	00 24 00 00 00 7c 00 1c 00 36 00 36 00 22 00 63     .$...|...6.6.".c
    4558:	00 7f 00 63 00 f7 80 09 0c 18 09 00 00 18 00 24     ...c...........$
    4568:	00 18 00 7e 00 1c 00 36 00 36 00 22 00 63 00 7f     ...~...6.6.".c..
    4578:	00 63 00 f7 80 09 09 12 09 00 00 3f 80 1c 80 1c     .c.........?....
    4588:	00 3d 00 2f 00 6d 00 7c 00 4c 80 df 80 07 0d 0d     .=./.m.|.L......
    4598:	09 01 fc 3a 6e c6 c0 c0 c0 c0 66 3c 10 18 08 38     ...:n.....f<...8
    45a8:	08 0c 0c 09 00 00 18 0c 00 ff 63 63 68 78 68 63     ..........cchxhc
    45b8:	63 ff 08 0c 0c 09 00 00 0c 18 00 ff 63 63 68 78     c...........cchx
    45c8:	68 63 63 ff 08 0c 0c 09 00 00 1c 36 00 ff 63 63     hcc........6..cc
    45d8:	68 78 68 63 63 ff 08 0c 0c 09 00 00 24 24 00 ff     hxhcc.......$$..
    45e8:	63 63 68 78 68 63 63 ff 06 0c 0c 09 01 00 60 30     cchxhcc.......`0
    45f8:	00 fc 30 30 30 30 30 30 30 fc 06 0c 0c 09 01 00     ..0000000.......
    4608:	18 30 00 fc 30 30 30 30 30 30 30 fc 06 0c 0c 09     .0..0000000.....
    4618:	01 00 38 6c 00 fc 30 30 30 30 30 30 30 fc 06 0c     ..8l..0000000...
    4628:	0c 09 01 00 48 48 00 fc 30 30 30 30 30 30 30 fc     ....HH..0000000.
    4638:	08 09 09 09 00 00 fc 66 63 63 f3 63 63 66 fc 09     .......fcc.ccf..
    4648:	0c 18 09 00 00 1a 00 2c 00 00 00 e7 80 63 00 73     .......,.....c.s
    4658:	00 73 00 6b 00 6b 00 67 00 67 00 f3 00 08 0c 0c     .s.k.k.g.g......
    4668:	09 00 00 30 18 00 3c 66 c3 c3 c3 c3 c3 66 3c 08     ...0..<f.....f<.
    4678:	0c 0c 09 00 00 0c 18 00 3c 66 c3 c3 c3 c3 c3 66     ........<f.....f
    4688:	3c 08 0c 0c 09 00 00 38 6c 00 3c 66 c3 c3 c3 c3     <......8l.<f....
    4698:	c3 66 3c 08 0c 0c 09 00 00 34 58 00 3c 66 c3 c3     .f<......4X.<f..
    46a8:	c3 c3 c3 66 3c 08 0c 0c 09 00 00 24 24 00 3c 66     ...f<......$$.<f
    46b8:	c3 c3 c3 c3 c3 66 3c 06 07 07 09 01 01 84 cc 78     .....f<........x
    46c8:	30 78 cc 84 08 0a 0a 09 00 00 01 3e 66 cb cb d3     0x.........>f...
    46d8:	d3 e3 66 bc 09 0c 18 09 00 00 18 00 0c 00 00 00     ..f.............
    46e8:	f7 80 63 00 63 00 63 00 63 00 63 00 63 00 63 00     ..c.c.c.c.c.c.c.
    46f8:	3e 00 09 0c 18 09 00 00 0c 00 18 00 00 00 f7 80     >...............
    4708:	63 00 63 00 63 00 63 00 63 00 63 00 63 00 3e 00     c.c.c.c.c.c.c.>.
    4718:	09 0c 18 09 00 00 1c 00 36 00 00 00 f7 80 63 00     ........6.....c.
    4728:	63 00 63 00 63 00 63 00 63 00 63 00 3e 00 09 0c     c.c.c.c.c.c.>...
    4738:	18 09 00 00 12 00 12 00 00 00 f7 80 63 00 63 00     ............c.c.
    4748:	63 00 63 00 63 00 63 00 63 00 3e 00 0a 0c 18 09     c.c.c.c.c.>.....
    4758:	ff 00 06 00 0c 00 00 00 f3 c0 61 80 33 00 33 00     ..........a.3.3.
    4768:	1e 00 0c 00 0c 00 0c 00 3f 00 08 09 09 09 00 00     ........?.......
    4778:	f0 60 7e 63 63 66 7c 60 f0 08 09 09 09 00 00 3c     .`~ccf|`.......<
    4788:	66 66 6c 66 63 63 6b ee 08 0a 0a 09 00 00 30 18     fflfcck.......0.
    4798:	00 7c 06 06 7e c6 ce 77 08 0a 0a 09 00 00 0c 18     .|..~..w........
    47a8:	00 7c 06 06 7e c6 ce 77 08 0a 0a 09 00 00 38 6c     .|..~..w......8l
    47b8:	00 7c 06 06 7e c6 ce 77 08 0a 0a 09 00 00 34 58     .|..~..w......4X
    47c8:	00 7c 06 06 7e c6 ce 77 08 0a 0a 09 00 00 24 24     .|..~..w......$$
    47d8:	00 7c 06 06 7e c6 ce 77 08 0a 0a 09 00 00 18 24     .|..~..w.......$
    47e8:	18 7c 06 06 7e c6 ce 77 09 07 0e 09 00 00 77 00     .|..~..w......w.
    47f8:	1d 80 08 80 7f 80 c8 00 cd 80 77 00 08 0b 0b 09     ..........w.....
    4808:	00 fc 3d 67 c3 c0 c0 63 3e 10 18 08 38 08 0a 0a     ..=g...c>...8...
    4818:	09 00 00 30 18 00 3c 66 c3 ff c0 67 3e 08 0a 0a     ...0..<f...g>...
    4828:	09 00 00 0c 18 00 3c 66 c3 ff c0 67 3e 08 0a 0a     ......<f...g>...
    4838:	09 00 00 1c 36 00 3c 66 c3 ff c0 67 3e 08 0a 0a     ....6.<f...g>...
    4848:	09 00 00 24 24 00 3c 66 c3 ff c0 67 3e 06 0a 0a     ...$$.<f...g>...
    4858:	09 01 00 60 30 00 f0 30 30 30 30 30 fc 06 0a 0a     ...`0..00000....
    4868:	09 01 00 18 30 00 f0 30 30 30 30 30 fc 06 0a 0a     ....0..00000....
    4878:	09 01 00 70 d8 00 f0 30 30 30 30 30 fc 06 0a 0a     ...p...00000....
    4888:	09 01 00 48 48 00 f0 30 30 30 30 30 fc 08 0a 0a     ...HH..00000....
    4898:	09 00 00 ec 38 cc 3e 66 c3 c3 c3 66 3c 09 0a 14     ....8.>f...f<...
    48a8:	09 00 00 1a 00 2c 00 00 00 ee 00 73 00 63 00 63     .....,.....s.c.c
    48b8:	00 63 00 63 00 f7 80 08 0a 0a 09 00 00 30 18 00     .c.c.........0..
    48c8:	3c 66 c3 c3 c3 66 3c 08 0a 0a 09 00 00 0c 18 00     <f...f<.........
    48d8:	3c 66 c3 c3 c3 66 3c 08 0a 0a 09 00 00 1c 36 00     <f...f<.......6.
    48e8:	3c 66 c3 c3 c3 66 3c 08 0a 0a 09 00 00 34 58 00     <f...f<......4X.
    48f8:	3c 66 c3 c3 c3 66 3c 08 0a 0a 09 00 00 24 24 00     <f...f<......$$.
    4908:	3c 66 c3 c3 c3 66 3c 08 07 07 09 00 01 18 18 00     <f...f<.........
    4918:	ff 00 18 18 08 07 07 09 00 00 3d 66 cf db f3 66     ..........=f...f
    4928:	bc 09 0a 14 09 00 00 18 00 0c 00 00 00 e7 00 63     ...............c
    4938:	00 63 00 63 00 63 00 67 00 3b 80 09 0a 14 09 00     .c.c.c.g.;......
    4948:	00 0c 00 18 00 00 00 e7 00 63 00 63 00 63 00 63     .........c.c.c.c
    4958:	00 67 00 3b 80 09 0a 14 09 00 00 1c 00 36 00 00     .g.;.........6..
    4968:	00 e7 00 63 00 63 00 63 00 63 00 67 00 3b 80 09     ...c.c.c.c.g.;..
    4978:	0a 14 09 00 00 24 00 24 00 00 00 e7 00 63 00 63     .....$.$.....c.c
    4988:	00 63 00 63 00 67 00 3b 80 09 0d 1a 09 00 fd 06     .c.c.g.;........
    4998:	00 0c 00 00 00 e3 80 63 00 63 00 36 00 36 00 1c     .......c.c.6.6..
    49a8:	00 1c 00 18 00 18 00 7c 00 08 0c 0c 09 00 fd e0     .......|........
    49b8:	60 6e 73 63 63 63 73 6e 60 60 f0 09 0d 1a 09 00     `nscccsn``......
    49c8:	fd 12 00 12 00 00 00 e3 80 63 00 63 00 36 00 36     .........c.c.6.6
    49d8:	00 1c 00 1c 00 18 00 18 00 7c 00                    .........|.

000049e3 <u8g_font_8x13>:
    49e3:	01 08 0d 00 fe 09 01 61 02 cd 20 ff fe 0b fe 09     .......a.. .....
    49f3:	fe 0d 00 80 32 19 89 80 80 80 80 80 80 80 00 80     ....2...........
    4a03:	28 43 83 90 90 90 13 67 87 48 48 fc 48 fc 48 48     (C.....g.HH.H.HH
    4a13:	12 59 89 20 78 a0 a0 70 28 28 f0 20 12 69 89 44     .Y. x..p((. .i.D
    4a23:	a4 48 10 10 20 48 54 88 12 67 87 60 90 90 60 94     .H.. HT..g.`..`.
    4a33:	88 74 38 13 83 80 80 80 32 39 89 20 40 40 80 80     .t8.....29. @@..
    4a43:	80 40 40 20 22 39 89 80 40 40 20 20 20 40 40 80     .@@ "9..@@   @@.
    4a53:	16 65 85 48 30 fc 30 48 14 55 85 20 20 f8 20 20     .e.H0.0H.U.  .  
    4a63:	11 43 83 70 60 80 16 51 81 f8 21 33 83 40 e0 40     .C.p`..Q..!3.@.@
    4a73:	02 79 89 02 02 04 08 10 20 40 80 80 12 69 89 30     .y...... @...i.0
    4a83:	48 84 84 84 84 84 48 30 12 59 89 20 60 a0 20 20     H.....H0.Y. `.  
    4a93:	20 20 20 f8 12 69 89 78 84 84 04 08 30 40 80 fc        ..i.x....0@..
    4aa3:	12 69 89 fc 04 08 10 38 04 04 84 78 12 69 89 08     .i.....8...x.i..
    4ab3:	18 28 48 88 88 fc 08 08 12 69 89 fc 80 80 b8 c4     .(H......i......
    4ac3:	04 04 84 78 12 69 89 38 40 80 80 b8 c4 84 84 78     ...x.i.8@......x
    4ad3:	12 69 89 fc 04 08 10 10 20 20 40 40 12 69 89 78     .i......  @@.i.x
    4ae3:	84 84 84 78 84 84 84 78 12 69 89 78 84 84 8c 74     ...x...x.i.x...t
    4af3:	04 04 08 70 21 38 88 40 e0 40 00 00 40 e0 40 11     ...p!8.@.@..@.@.
    4b03:	48 88 20 70 20 00 00 70 60 80 22 59 89 08 10 20     H. p ..p`."Y... 
    4b13:	40 80 40 20 10 08 14 64 84 fc 00 00 fc 12 59 89     @.@ ...d......Y.
    4b23:	80 40 20 10 08 10 20 40 80 12 69 89 78 84 84 04     .@ ... @..i.x...
    4b33:	08 10 10 00 10 12 69 89 78 84 84 9c a4 ac 94 80     ......i.x.......
    4b43:	78 12 69 89 30 48 84 84 84 fc 84 84 84 12 69 89     x.i.0H........i.
    4b53:	f0 88 84 88 f0 88 84 88 f0 12 69 89 78 84 80 80     ..........i.x...
    4b63:	80 80 80 84 78 12 69 89 f0 88 84 84 84 84 84 88     ....x.i.........
    4b73:	f0 12 69 89 fc 80 80 80 f0 80 80 80 fc 12 69 89     ..i...........i.
    4b83:	fc 80 80 80 f0 80 80 80 80 12 69 89 78 84 80 80     ..........i.x...
    4b93:	80 9c 84 8c 74 12 69 89 84 84 84 84 fc 84 84 84     ....t.i.........
    4ba3:	84 12 59 89 f8 20 20 20 20 20 20 20 f8 12 79 89     ..Y..       ..y.
    4bb3:	3e 08 08 08 08 08 08 88 70 12 69 89 84 88 90 a0     >.......p.i.....
    4bc3:	c0 a0 90 88 84 12 69 89 80 80 80 80 80 80 80 80     ......i.........
    4bd3:	fc 02 79 89 82 82 c6 aa 92 92 82 82 82 12 69 89     ..y...........i.
    4be3:	84 84 c4 a4 94 8c 84 84 84 12 69 89 78 84 84 84     ..........i.x...
    4bf3:	84 84 84 84 78 12 69 89 f8 84 84 84 f8 80 80 80     ....x.i.........
    4c03:	80 11 6a 8a 78 84 84 84 84 84 a4 94 78 04 12 69     ..j.x.......x..i
    4c13:	89 f8 84 84 84 f8 a0 90 88 84 12 69 89 78 84 80     ...........i.x..
    4c23:	80 78 04 04 84 78 02 79 89 fe 10 10 10 10 10 10     .x...x.y........
    4c33:	10 10 12 69 89 84 84 84 84 84 84 84 84 78 02 79     ...i.........x.y
    4c43:	89 82 82 44 44 44 28 28 28 10 02 79 89 82 82 82     ...DDD(((..y....
    4c53:	82 92 92 92 aa 44 02 79 89 82 82 44 28 10 28 44     .....D.y...D(.(D
    4c63:	82 82 02 79 89 82 82 44 28 10 10 10 10 10 12 69     ...y...D(......i
    4c73:	89 fc 04 08 10 20 40 80 80 fc 22 49 89 f0 80 80     ..... @..."I....
    4c83:	80 80 80 80 80 f0 02 79 89 80 80 40 20 10 08 04     .......y...@ ...
    4c93:	02 02 12 49 89 f0 10 10 10 10 10 10 10 f0 18 53     ...I...........S
    4ca3:	83 20 50 88 01 71 81 fe 3a 22 82 80 40 12 66 86     . P..q..:"..@.f.
    4cb3:	78 04 7c 84 8c 74 12 69 89 80 80 80 b8 c4 84 84     x.|..t.i........
    4cc3:	c4 b8 12 66 86 78 84 80 80 84 78 12 69 89 04 04     ...f.x....x.i...
    4cd3:	04 74 8c 84 84 8c 74 12 66 86 78 84 fc 80 84 78     .t....t.f.x....x
    4ce3:	12 69 89 38 44 40 40 f8 40 40 40 40 10 68 88 74     .i.8D@@.@@@@.h.t
    4cf3:	88 88 70 80 78 84 78 12 69 89 80 80 80 b8 c4 84     ..p.x.x.i.......
    4d03:	84 84 84 12 58 88 20 00 60 20 20 20 20 f8 10 5a     ....X. .`    ..Z
    4d13:	8a 08 00 18 08 08 08 08 88 88 70 12 69 89 80 80     ..........p.i...
    4d23:	80 88 90 e0 90 88 84 12 59 89 60 20 20 20 20 20     ........Y.`     
    4d33:	20 20 f8 02 76 86 ec 92 92 92 92 82 12 66 86 b8       ..v........f..
    4d43:	c4 84 84 84 84 12 66 86 78 84 84 84 84 78 10 68     ......f.x....x.h
    4d53:	88 b8 c4 84 c4 b8 80 80 80 10 68 88 74 8c 84 8c     ..........h.t...
    4d63:	74 04 04 04 12 66 86 b8 44 40 40 40 40 12 66 86     t....f..D@@@@.f.
    4d73:	78 84 60 18 84 78 12 68 88 40 40 f8 40 40 40 44     x.`..x.h.@@.@@@D
    4d83:	38 12 66 86 88 88 88 88 88 74 12 56 86 88 88 88     8.f......t.V....
    4d93:	50 50 20 02 76 86 82 82 92 92 aa 44 12 66 86 84     PP .v......D.f..
    4da3:	48 30 30 48 84 10 68 88 84 84 84 8c 74 04 84 78     H00H..h.....t..x
    4db3:	12 66 86 fc 08 10 20 40 fc 22 59 89 38 40 40 20     .f.... @."Y.8@@ 
    4dc3:	c0 20 40 40 38 32 19 89 80 80 80 80 80 80 80 80     . @@82..........
    4dd3:	80 12 59 89 e0 10 10 20 18 20 10 10 e0 18 53 83     ..Y.... . ....S.
    4de3:	48 a8 90 ff ff ff ff ff ff ff ff ff ff ff ff ff     H...............
    4df3:	ff ff ff ff ff ff ff ff ff ff ff ff ff ff ff ff     ................
    4e03:	ff ff ff ff 0d 00 80 32 19 89 80 00 80 80 80 80     .......2........
    4e13:	80 80 80 13 58 88 20 70 a8 a0 a0 a8 70 20 02 79     ....X. p....p .y
    4e23:	89 1c 22 20 70 20 20 20 62 dc 13 66 86 84 78 48     .." p   b..f..xH
    4e33:	48 78 84 02 79 89 82 82 44 28 7c 10 7c 10 10 32     Hx..y...D(|.|..2
    4e43:	19 89 80 80 80 80 00 80 80 80 80 22 4a 8a 60 90     ..........."J.`.
    4e53:	80 60 90 90 60 10 90 60 2a 42 82 90 90 03 79 89     .`..`..`*B....y.
    4e63:	38 44 92 aa a2 aa 92 44 38 14 57 87 70 08 78 88     8D.....D8.W.p.x.
    4e73:	78 00 f8 03 77 87 12 24 48 90 48 24 12 13 64 84     x...w..$H.H$..d.
    4e83:	fc 04 04 04 26 41 81 f0 03 79 89 38 44 92 aa aa     ....&A...y.8D...
    4e93:	b2 aa 44 38 1a 61 81 fc 27 44 84 60 90 90 60 13     ..D8.a..'D.`..`.
    4ea3:	57 87 20 20 f8 20 20 00 f8 16 46 86 60 90 10 60     W.  .  ...F.`..`
    4eb3:	80 f0 16 46 86 60 90 20 10 90 60 3a 22 82 40 80     ...F.`. ..`:".@.
    4ec3:	11 67 87 84 84 84 84 cc b4 80 12 69 89 7c e8 e8     .g.........i.|..
    4ed3:	e8 68 28 28 28 28 36 21 81 c0 30 22 82 40 c0 16     .h((((6!..0".@..
    4ee3:	36 86 40 c0 40 40 40 e0 15 46 86 60 90 90 60 00     6.@.@@@..F.`..`.
    4ef3:	f0 03 77 87 90 48 24 12 24 48 90 02 7a 8a 40 c0     ..w..H$.$H..z.@.
    4f03:	40 40 42 e6 0a 12 1a 06 02 7a 8a 40 c0 40 40 4c     @@B......z.@.@@L
    4f13:	f2 02 0c 10 1e 02 7a 8a 60 90 20 10 92 66 0a 12     ......z.`. ..f..
    4f23:	1a 06 12 69 89 20 00 20 20 40 80 84 84 78 12 6a     ...i. .  @...x.j
    4f33:	8a 20 10 00 30 48 84 84 fc 84 84 12 6a 8a 10 20     . ..0H......j.. 
    4f43:	00 30 48 84 84 fc 84 84 12 6a 8a 30 48 00 30 48     .0H......j.0H.0H
    4f53:	84 84 fc 84 84 12 6a 8a 64 98 00 30 48 84 84 fc     ......j.d..0H...
    4f63:	84 84 12 6a 8a 48 48 00 30 48 84 84 fc 84 84 12     ...j.HH.0H......
    4f73:	6a 8a 30 48 30 30 48 84 84 fc 84 84 02 79 89 6e     j.0H00H......y.n
    4f83:	90 90 90 9c f0 90 90 9e 10 6b 8b 78 84 80 80 80     .........k.x....
    4f93:	80 80 84 78 10 20 12 6a 8a 20 10 00 fc 80 80 f0     ...x. .j. ......
    4fa3:	80 80 fc 12 6a 8a 10 20 00 fc 80 80 f0 80 80 fc     ....j.. ........
    4fb3:	12 6a 8a 30 48 00 fc 80 80 f0 80 80 fc 12 6a 8a     .j.0H.........j.
    4fc3:	48 48 00 fc 80 80 f0 80 80 fc 12 5a 8a 40 20 00     HH.........Z.@ .
    4fd3:	f8 20 20 20 20 20 f8 12 5a 8a 10 20 00 f8 20 20     .     ..Z.. ..  
    4fe3:	20 20 20 f8 12 5a 8a 30 48 00 f8 20 20 20 20 20        ..Z.0H..     
    4ff3:	f8 12 5a 8a 88 88 00 f8 20 20 20 20 20 f8 02 79     ..Z.....     ..y
    5003:	89 78 44 42 42 e2 42 42 44 78 02 7a 8a 64 98 00     .xDBB.BBDx.z.d..
    5013:	82 c2 a2 92 8a 86 82 02 7a 8a 20 10 00 7c 82 82     ........z. ..|..
    5023:	82 82 82 7c 02 7a 8a 08 10 00 7c 82 82 82 82 82     ...|.z....|.....
    5033:	7c 02 7a 8a 18 24 00 7c 82 82 82 82 82 7c 02 7a     |.z..$.|.....|.z
    5043:	8a 64 98 00 7c 82 82 82 82 82 7c 02 7a 8a 44 44     .d..|.....|.z.DD
    5053:	00 7c 82 82 82 82 82 7c 13 66 86 84 48 30 30 48     .|.....|.f..H00H
    5063:	84 11 6b 8b 04 78 8c 94 94 a4 a4 a4 c4 78 80 12     ..k..x.......x..
    5073:	6a 8a 40 20 00 84 84 84 84 84 84 78 12 6a 8a 10     j.@ .......x.j..
    5083:	20 00 84 84 84 84 84 84 78 12 6a 8a 30 48 00 84      .......x.j.0H..
    5093:	84 84 84 84 84 78 12 6a 8a 48 48 00 84 84 84 84     .....x.j.HH.....
    50a3:	84 84 78 12 5a 8a 10 20 00 88 88 50 20 20 20 20     ..x.Z.. ...P    
    50b3:	12 69 89 80 f8 84 84 84 f8 80 80 80 12 69 89 70     .i...........i.p
    50c3:	88 88 90 a0 98 84 84 b8 12 69 89 20 10 00 78 04     .........i. ..x.
    50d3:	7c 84 8c 74 12 69 89 08 10 00 78 04 7c 84 8c 74     |..t.i....x.|..t
    50e3:	12 69 89 30 48 00 78 04 7c 84 8c 74 12 69 89 64     .i.0H.x.|..t.i.d
    50f3:	98 00 78 04 7c 84 8c 74 12 69 89 48 48 00 78 04     ..x.|..t.i.HH.x.
    5103:	7c 84 8c 74 12 6a 8a 30 48 30 00 78 04 7c 84 8c     |..t.j.0H0.x.|..
    5113:	74 02 76 86 6c 12 7c 90 92 6c 10 68 88 78 84 80     t.v.l.|..l.h.x..
    5123:	80 84 78 10 20 12 69 89 20 10 00 78 84 fc 80 84     ..x. .i. ..x....
    5133:	78 12 69 89 10 20 00 78 84 fc 80 84 78 12 69 89     x.i.. .x....x.i.
    5143:	30 48 00 78 84 fc 80 84 78 12 69 89 48 48 00 78     0H.x....x.i.HH.x
    5153:	84 fc 80 84 78 12 59 89 40 20 00 60 20 20 20 20     ....x.Y.@ .`    
    5163:	f8 12 59 89 20 40 00 60 20 20 20 20 f8 12 59 89     ..Y. @.`    ..Y.
    5173:	60 90 00 60 20 20 20 20 f8 12 59 89 90 90 00 60     `..`    ..Y....`
    5183:	20 20 20 20 f8 12 6a 8a 48 30 50 08 78 84 84 84         ..j.H0P.x...
    5193:	84 78 12 69 89 64 98 00 b8 c4 84 84 84 84 12 69     .x.i.d.........i
    51a3:	89 40 20 00 78 84 84 84 84 78 12 69 89 10 20 00     .@ .x....x.i.. .
    51b3:	78 84 84 84 84 78 12 69 89 30 48 00 78 84 84 84     x....x.i.0H.x...
    51c3:	84 78 12 69 89 64 98 00 78 84 84 84 84 78 12 69     .x.i.d..x....x.i
    51d3:	89 48 48 00 78 84 84 84 84 78 13 57 87 20 20 00     .HH.x....x.W.  .
    51e3:	f8 00 20 20 11 68 88 04 78 8c 94 a4 c4 78 80 12     ..  .h..x....x..
    51f3:	69 89 40 20 00 88 88 88 88 88 74 12 69 89 10 20     i.@ ......t.i.. 
    5203:	00 88 88 88 88 88 74 12 69 89 30 48 00 88 88 88     ......t.i.0H....
    5213:	88 88 74 12 69 89 50 50 00 88 88 88 88 88 74 10     ..t.i.PP......t.
    5223:	6b 8b 10 20 00 84 84 84 8c 74 04 84 78 10 6a 8a     k.. .....t..x.j.
    5233:	80 80 b8 c4 84 84 c4 b8 80 80 10 6b 8b 48 48 00     ...........k.HH.
    5243:	84 84 84 8c 74 04 84 78                             ....t..x

0000524b <u8g_font_4x6>:
    524b:	01 04 06 00 ff 05 01 03 01 fa 20 ff ff 05 ff 05     .......... .....
    525b:	ff 07 00 40 12 15 45 80 80 80 00 80 05 32 42 a0     ...@..E......2B.
    526b:	a0 02 45 45 a0 f0 a0 f0 a0 01 36 46 40 e0 c0 20     ..EE......6F@.. 
    527b:	e0 40 02 35 45 80 20 40 80 20 02 45 45 40 a0 40     .@.5E. @. .EE@.@
    528b:	a0 50 15 12 42 80 80 11 26 46 40 80 80 80 80 40     .P..B...&F@....@
    529b:	01 26 46 80 40 40 40 40 80 02 35 45 a0 40 e0 40     .&F.@@@@..5E.@.@
    52ab:	a0 02 35 45 40 40 e0 40 40 01 22 42 40 80 04 31     ..5E@@.@@."B@..1
    52bb:	41 e0 12 11 41 80 02 35 45 20 20 40 80 80 02 35     A...A..5E  @...5
    52cb:	45 40 a0 e0 a0 40 02 35 45 40 c0 40 40 e0 02 35     E@...@.5E@.@@..5
    52db:	45 40 a0 20 40 e0 02 35 45 e0 20 40 20 c0 02 35     E@. @..5E. @ ..5
    52eb:	45 a0 a0 e0 20 20 02 35 45 e0 80 c0 20 c0 02 35     E...  .5E... ..5
    52fb:	45 60 80 c0 a0 40 02 35 45 e0 20 40 80 80 02 35     E`...@.5E. @...5
    530b:	45 60 a0 40 a0 c0 02 35 45 40 a0 60 20 c0 12 14     E`.@...5E@.` ...
    531b:	44 80 00 00 80 01 25 45 40 00 00 40 80 02 35 45     D.....%E@..@..5E
    532b:	20 40 80 40 20 03 33 43 e0 00 e0 02 35 45 80 40      @.@ .3C....5E.@
    533b:	20 40 80 02 35 45 c0 20 40 00 40 02 35 45 60 a0      @..5E. @.@.5E`.
    534b:	a0 80 60 02 35 45 40 a0 e0 a0 a0 02 35 45 c0 a0     ..`.5E@.....5E..
    535b:	c0 a0 c0 02 35 45 40 a0 80 a0 40 02 35 45 c0 a0     ....5E@...@.5E..
    536b:	a0 a0 c0 02 35 45 e0 80 c0 80 e0 02 35 45 e0 80     ....5E......5E..
    537b:	c0 80 80 02 35 45 60 80 a0 a0 60 02 35 45 a0 a0     ....5E`...`.5E..
    538b:	e0 a0 a0 02 35 45 e0 40 40 40 e0 02 35 45 20 20     ....5E.@@@..5E  
    539b:	20 a0 40 02 35 45 a0 a0 c0 a0 a0 02 35 45 80 80      .@.5E......5E..
    53ab:	80 80 e0 02 35 45 a0 e0 e0 a0 a0 02 35 45 20 a0     ....5E......5E .
    53bb:	e0 a0 80 02 35 45 40 a0 a0 a0 40 02 35 45 c0 a0     ....5E@...@.5E..
    53cb:	c0 80 80 01 36 46 40 a0 a0 a0 40 20 02 35 45 c0     ....6F@...@ .5E.
    53db:	a0 c0 a0 a0 02 35 45 60 80 40 20 c0 02 35 45 e0     .....5E`.@ ..5E.
    53eb:	40 40 40 40 02 35 45 a0 a0 a0 a0 e0 02 35 45 a0     @@@@.5E......5E.
    53fb:	a0 a0 e0 40 02 35 45 a0 a0 e0 e0 a0 02 35 45 a0     ...@.5E......5E.
    540b:	a0 40 a0 a0 02 35 45 a0 a0 40 40 40 02 35 45 e0     .@...5E..@@@.5E.
    541b:	20 40 80 e0 12 25 45 c0 80 80 80 c0 02 35 45 80      @...%E......5E.
    542b:	80 40 20 20 02 25 45 c0 40 40 40 c0 05 32 42 40     .@  .%E.@@@..2B@
    543b:	a0 01 31 41 e0 15 22 42 80 40 02 34 44 60 a0 a0     ..1A.."B.@.4D`..
    544b:	60 02 35 45 80 c0 a0 a0 c0 02 34 44 60 80 80 60     `.5E......4D`..`
    545b:	02 35 45 20 60 a0 a0 60 02 34 44 40 a0 c0 60 02     .5E `..`.4D@..`.
    546b:	35 45 20 40 e0 40 40 01 35 45 60 a0 60 20 c0 02     5E @.@@.5E`.` ..
    547b:	35 45 80 c0 a0 a0 a0 02 35 45 40 00 c0 40 e0 01     5E......5E@..@..
    548b:	36 46 20 00 20 20 20 c0 02 35 45 80 a0 c0 a0 a0     6F .   ..5E.....
    549b:	02 35 45 c0 40 40 40 e0 02 34 44 a0 e0 a0 a0 02     .5E.@@@..4D.....
    54ab:	34 44 c0 a0 a0 a0 02 34 44 40 a0 a0 40 01 35 45     4D.....4D@..@.5E
    54bb:	c0 a0 c0 80 80 01 35 45 60 a0 a0 60 20 02 34 44     ......5E`..` .4D
    54cb:	a0 c0 80 80 02 34 44 60 c0 20 c0 02 35 45 40 e0     .....4D`. ..5E@.
    54db:	40 40 20 02 34 44 a0 a0 a0 60 02 34 44 a0 a0 a0     @@ .4D...`.4D...
    54eb:	40 02 34 44 a0 a0 e0 a0 02 34 44 a0 40 40 a0 01     @.4D.....4D.@@..
    54fb:	35 45 a0 a0 60 20 c0 02 34 44 e0 20 40 e0 01 36     5E..` ..4D. @..6
    550b:	46 20 40 c0 40 40 20 12 15 45 80 80 80 80 80 01     F @.@@ ..E......
    551b:	36 46 80 40 60 40 40 80 05 42 42 50 a0 ff ff ff     6F.@`@@..BBP....
    552b:	ff ff ff ff ff ff ff ff ff ff ff ff ff ff ff ff     ................
    553b:	ff ff ff ff ff ff ff ff ff ff ff ff ff ff 07 00     ................
    554b:	40 12 15 45 80 00 80 80 80 02 35 45 40 e0 80 e0     @..E......5E@...
    555b:	40 02 35 45 20 40 60 40 a0 02 44 44 90 60 60 90     @.5E @`@..DD.``.
    556b:	02 35 45 a0 40 e0 40 40 12 15 45 80 80 00 80 80     .5E.@.@@..E.....
    557b:	01 36 46 60 c0 a0 60 20 c0 06 31 41 a0 01 46 46     .6F`..` ..1A..FF
    558b:	60 90 d0 d0 90 60 02 35 45 60 a0 60 00 e0 03 43     `....`.5E`.`...C
    559b:	43 50 a0 50 03 32 42 e0 20 04 31 41 e0 03 44 44     CP.P.2B. .1A..DD
    55ab:	60 f0 d0 60 06 31 41 e0 04 33 43 40 a0 40 02 35     `..`.1A..3C@.@.5
    55bb:	45 40 e0 40 00 e0 03 24 44 c0 40 80 c0 02 25 45     E@.@...$D.@...%E
    55cb:	c0 40 80 40 80 15 22 42 40 80 01 35 45 a0 a0 a0     .@.@.."B@..5E...
    55db:	c0 80 02 45 45 70 d0 d0 50 50 14 11 41 80 12 22     ...EEp..PP..A.."
    55eb:	42 40 80 03 24 44 40 c0 40 40 02 35 45 40 a0 40     B@..$D@.@@.5E@.@
    55fb:	00 e0 03 43 43 a0 50 a0 01 46 46 80 80 80 50 70     ...CC.P..FF...Pp
    560b:	10 01 46 46 80 80 b0 10 20 30 01 46 46 c0 40 80     ..FF.... 0.FF.@.
    561b:	50 b0 10 02 35 45 40 00 40 80 60 02 35 45 80 40     P...5E@.@.`.5E.@
    562b:	a0 e0 a0 02 35 45 20 40 a0 e0 a0 02 35 45 c0 40     ....5E @....5E.@
    563b:	a0 e0 a0 02 35 45 60 c0 a0 e0 a0 02 35 45 a0 40     ....5E`.....5E.@
    564b:	a0 e0 a0 02 35 45 40 40 a0 e0 a0 02 45 45 70 a0     ....5E@@....EEp.
    565b:	f0 a0 b0 01 36 46 40 a0 80 a0 40 80 02 35 45 80     ....6F@...@..5E.
    566b:	e0 c0 80 e0 02 35 45 20 e0 c0 80 e0 02 35 45 60     .....5E .....5E`
    567b:	e0 c0 80 e0 02 35 45 a0 e0 c0 80 e0 02 35 45 80     .....5E......5E.
    568b:	e0 40 40 e0 02 35 45 20 e0 40 40 e0 02 35 45 40     .@@..5E .@@..5E@
    569b:	e0 40 40 e0 02 35 45 a0 40 40 40 e0 02 45 45 e0     .@@..5E.@@@..EE.
    56ab:	50 d0 50 e0 02 45 45 50 a0 e0 e0 a0 02 35 45 80     P.P..EEP.....5E.
    56bb:	40 a0 a0 40 02 35 45 20 40 a0 a0 40 02 35 45 40     @..@.5E @..@.5E@
    56cb:	40 a0 a0 40 02 45 45 70 e0 a0 a0 40 02 35 45 a0     @..@.EEp...@.5E.
    56db:	40 a0 a0 40 03 33 43 a0 40 a0 02 35 45 60 a0 e0     @..@.3C.@..5E`..
    56eb:	a0 c0 02 35 45 80 40 a0 a0 e0 02 35 45 20 40 a0     ...5E.@....5E @.
    56fb:	a0 e0 02 35 45 40 00 a0 a0 e0 02 35 45 a0 00 a0     ...5E@.....5E...
    570b:	a0 e0 02 35 45 20 00 a0 40 40 02 35 45 80 c0 a0     ...5E ..@@.5E...
    571b:	c0 80 01 36 46 40 a0 c0 a0 e0 80 02 35 45 80 40     ...6F@......5E.@
    572b:	60 a0 60 02 35 45 20 40 60 a0 60 02 35 45 60 00     `.`.5E @`.`.5E`.
    573b:	60 a0 60 02 45 45 50 a0 60 a0 60 02 35 45 a0 00     `.`.EEP.`.`.5E..
    574b:	60 a0 60 02 35 45 40 00 60 a0 60 02 44 44 70 b0     `.`.5E@.`.`.DDp.
    575b:	a0 70 01 35 45 40 a0 80 60 40 02 35 45 80 40 a0     .p.5E@..`@.5E.@.
    576b:	c0 60 02 35 45 20 40 a0 c0 60 02 35 45 c0 40 a0     .`.5E @..`.5E.@.
    577b:	c0 60 02 35 45 a0 40 a0 c0 60 02 35 45 80 40 40     .`.5E.@..`.5E.@@
    578b:	40 e0 02 35 45 20 c0 40 40 e0 02 35 45 40 a0 40     @..5E .@@..5E@.@
    579b:	40 e0 02 35 45 a0 00 c0 40 e0 02 35 45 a0 40 60     @..5E...@..5E.@`
    57ab:	a0 40 02 45 45 50 a0 c0 a0 a0 02 35 45 80 40 40     .@.EEP.....5E.@@
    57bb:	a0 40 02 35 45 20 40 40 a0 40 02 35 45 40 00 40     .@.5E @@.@.5E@.@
    57cb:	a0 40 02 35 45 e0 00 40 a0 40 02 35 45 a0 00 40     .@.5E..@.@.5E..@
    57db:	a0 40 02 35 45 40 00 e0 00 40 02 34 44 60 a0 a0     .@.5E@...@.4D`..
    57eb:	c0 02 35 45 80 40 a0 a0 60 02 35 45 20 40 a0 a0     ..5E.@..`.5E @..
    57fb:	60 02 35 45 40 00 a0 a0 60 02 35 45 a0 00 a0 a0     `.5E@...`.5E....
    580b:	60 01 36 46 20 40 a0 e0 20 c0 01 36 46 80 80 c0     `.6F @.. ..6F...
    581b:	a0 c0 80 01 36 46 a0 00 a0 e0 20 c0 00              ....6F.... ..

00005828 <__ctors_end>:
    5828:	11 24       	eor	r1, r1
    582a:	1f be       	out	0x3f, r1	; 63
    582c:	cf ef       	ldi	r28, 0xFF	; 255
    582e:	d8 e0       	ldi	r29, 0x08	; 8
    5830:	de bf       	out	0x3e, r29	; 62
    5832:	cd bf       	out	0x3d, r28	; 61

00005834 <__do_copy_data>:
    5834:	11 e0       	ldi	r17, 0x01	; 1
    5836:	a0 e0       	ldi	r26, 0x00	; 0
    5838:	b1 e0       	ldi	r27, 0x01	; 1
    583a:	ec ed       	ldi	r30, 0xDC	; 220
    583c:	fe e6       	ldi	r31, 0x6E	; 110
    583e:	02 c0       	rjmp	.+4      	; 0x5844 <__do_copy_data+0x10>
    5840:	05 90       	lpm	r0, Z+
    5842:	0d 92       	st	X+, r0
    5844:	ac 34       	cpi	r26, 0x4C	; 76
    5846:	b1 07       	cpc	r27, r17
    5848:	d9 f7       	brne	.-10     	; 0x5840 <__do_copy_data+0xc>

0000584a <__do_clear_bss>:
    584a:	22 e0       	ldi	r18, 0x02	; 2
    584c:	ac e4       	ldi	r26, 0x4C	; 76
    584e:	b1 e0       	ldi	r27, 0x01	; 1
    5850:	01 c0       	rjmp	.+2      	; 0x5854 <.do_clear_bss_start>

00005852 <.do_clear_bss_loop>:
    5852:	1d 92       	st	X+, r1

00005854 <.do_clear_bss_start>:
    5854:	a6 30       	cpi	r26, 0x06	; 6
    5856:	b2 07       	cpc	r27, r18
    5858:	e1 f7       	brne	.-8      	; 0x5852 <.do_clear_bss_loop>
    585a:	0e 94 67 36 	call	0x6cce	; 0x6cce <main>
    585e:	0c 94 6c 37 	jmp	0x6ed8	; 0x6ed8 <_exit>

00005862 <__bad_interrupt>:
    5862:	0c 94 00 00 	jmp	0	; 0x0 <__vectors>

00005866 <ADC_init>:
	//Sid 237
	
	/*AVcc with external capacitor at AREF pin (page 248) Change the ADLAR bit to left 
	or right adjust the pin. Write a one to leftadjust.If we change adc channel, the mux
	must be set as well.*/
	ADMUX = (1<<REFS0);
    5866:	80 e4       	ldi	r24, 0x40	; 64
    5868:	80 93 7c 00 	sts	0x007C, r24	; 0x80007c <__TEXT_REGION_LENGTH__+0x7e007c>
	
	//Enables the ADC
	ADCSRA = (1<<ADEN);
    586c:	ea e7       	ldi	r30, 0x7A	; 122
    586e:	f0 e0       	ldi	r31, 0x00	; 0
    5870:	80 e8       	ldi	r24, 0x80	; 128
    5872:	80 83       	st	Z, r24
	
	//Set the prescaler to 16 for a 500 KHz sample frequency
	ADCSRA |= (0<<ADPS0) |(0<<ADPS1) | (1<<ADPS2);
    5874:	80 81       	ld	r24, Z
    5876:	84 60       	ori	r24, 0x04	; 4
    5878:	80 83       	st	Z, r24
    587a:	08 95       	ret

0000587c <Read_ADC>:


uint16_t Read_ADC(uint8_t ADC_Channel){
	
	//Enables the ADC
	ADCSRA = (1<<ADEN);
    587c:	aa e7       	ldi	r26, 0x7A	; 122
    587e:	b0 e0       	ldi	r27, 0x00	; 0
    5880:	90 e8       	ldi	r25, 0x80	; 128
    5882:	9c 93       	st	X, r25
	
	//Masks the ADC channel to read from
	ADMUX &= 0xF0;
    5884:	ec e7       	ldi	r30, 0x7C	; 124
    5886:	f0 e0       	ldi	r31, 0x00	; 0
    5888:	90 81       	ld	r25, Z
    588a:	90 7f       	andi	r25, 0xF0	; 240
    588c:	90 83       	st	Z, r25
	ADMUX |= ADC_Channel;
    588e:	90 81       	ld	r25, Z
    5890:	89 2b       	or	r24, r25
    5892:	80 83       	st	Z, r24
	
	//Starts conversion
	ADCSRA |= (1<<ADSC);
    5894:	8c 91       	ld	r24, X
    5896:	80 64       	ori	r24, 0x40	; 64
    5898:	8c 93       	st	X, r24
	//While the flag is set, wait
	while (ADCSRA & (1<<ADSC));
    589a:	ea e7       	ldi	r30, 0x7A	; 122
    589c:	f0 e0       	ldi	r31, 0x00	; 0
    589e:	80 81       	ld	r24, Z
    58a0:	86 fd       	sbrc	r24, 6
    58a2:	fd cf       	rjmp	.-6      	; 0x589e <Read_ADC+0x22>
	//OR THIS ISTEAD
	//while(ADCSRA & (1<<ADIF));
	
	//Disable the ADC
	ADCSRA &= ~(1<<ADEN);
    58a4:	ea e7       	ldi	r30, 0x7A	; 122
    58a6:	f0 e0       	ldi	r31, 0x00	; 0
    58a8:	80 81       	ld	r24, Z
    58aa:	8f 77       	andi	r24, 0x7F	; 127
    58ac:	80 83       	st	Z, r24
	
	return ADC;
    58ae:	80 91 78 00 	lds	r24, 0x0078	; 0x800078 <__TEXT_REGION_LENGTH__+0x7e0078>
    58b2:	90 91 79 00 	lds	r25, 0x0079	; 0x800079 <__TEXT_REGION_LENGTH__+0x7e0079>
    58b6:	08 95       	ret

000058b8 <OLED_Init>:
    {
        u8g_SetFont(&oled_display, font);
        u8g_DrawStr(&oled_display, 0, 10, s);
    } while ( u8g_NextPage(&oled_display) );

 }
    58b8:	e1 e6       	ldi	r30, 0x61	; 97
    58ba:	f0 e0       	ldi	r31, 0x00	; 0
    58bc:	80 e8       	ldi	r24, 0x80	; 128
    58be:	80 83       	st	Z, r24
    58c0:	10 82       	st	Z, r1
    58c2:	40 e0       	ldi	r20, 0x00	; 0
    58c4:	60 e0       	ldi	r22, 0x00	; 0
    58c6:	71 e0       	ldi	r23, 0x01	; 1
    58c8:	8f ec       	ldi	r24, 0xCF	; 207
    58ca:	91 e0       	ldi	r25, 0x01	; 1
    58cc:	0e 94 7a 33 	call	0x66f4	; 0x66f4 <u8g_InitI2C>
    58d0:	08 95       	ret

000058d2 <welcome_message>:
    58d2:	8f ec       	ldi	r24, 0xCF	; 207
    58d4:	91 e0       	ldi	r25, 0x01	; 1
    58d6:	0e 94 90 33 	call	0x6720	; 0x6720 <u8g_FirstPage>
    58da:	28 e5       	ldi	r18, 0x58	; 88
    58dc:	41 e1       	ldi	r20, 0x11	; 17
    58de:	64 e1       	ldi	r22, 0x14	; 20
    58e0:	8f ec       	ldi	r24, 0xCF	; 207
    58e2:	91 e0       	ldi	r25, 0x01	; 1
    58e4:	0e 94 25 35 	call	0x6a4a	; 0x6a4a <u8g_DrawHLine>
    58e8:	63 ee       	ldi	r22, 0xE3	; 227
    58ea:	79 e4       	ldi	r23, 0x49	; 73
    58ec:	8f ec       	ldi	r24, 0xCF	; 207
    58ee:	91 e0       	ldi	r25, 0x01	; 1
    58f0:	0e 94 6d 32 	call	0x64da	; 0x64da <u8g_SetFont>
    58f4:	2e e0       	ldi	r18, 0x0E	; 14
    58f6:	31 e0       	ldi	r19, 0x01	; 1
    58f8:	40 e2       	ldi	r20, 0x20	; 32
    58fa:	64 e2       	ldi	r22, 0x24	; 36
    58fc:	8f ec       	ldi	r24, 0xCF	; 207
    58fe:	91 e0       	ldi	r25, 0x01	; 1
    5900:	0e 94 e1 31 	call	0x63c2	; 0x63c2 <u8g_DrawStr>
    5904:	28 e5       	ldi	r18, 0x58	; 88
    5906:	46 e2       	ldi	r20, 0x26	; 38
    5908:	64 e1       	ldi	r22, 0x14	; 20
    590a:	8f ec       	ldi	r24, 0xCF	; 207
    590c:	91 e0       	ldi	r25, 0x01	; 1
    590e:	0e 94 25 35 	call	0x6a4a	; 0x6a4a <u8g_DrawHLine>
    5912:	6b e4       	ldi	r22, 0x4B	; 75
    5914:	72 e5       	ldi	r23, 0x52	; 82
    5916:	8f ec       	ldi	r24, 0xCF	; 207
    5918:	91 e0       	ldi	r25, 0x01	; 1
    591a:	0e 94 6d 32 	call	0x64da	; 0x64da <u8g_SetFont>
    591e:	26 e1       	ldi	r18, 0x16	; 22
    5920:	31 e0       	ldi	r19, 0x01	; 1
    5922:	47 e3       	ldi	r20, 0x37	; 55
    5924:	62 e3       	ldi	r22, 0x32	; 50
    5926:	8f ec       	ldi	r24, 0xCF	; 207
    5928:	91 e0       	ldi	r25, 0x01	; 1
    592a:	0e 94 e1 31 	call	0x63c2	; 0x63c2 <u8g_DrawStr>
    592e:	8f ec       	ldi	r24, 0xCF	; 207
    5930:	91 e0       	ldi	r25, 0x01	; 1
    5932:	0e 94 96 33 	call	0x672c	; 0x672c <u8g_NextPage>
    5936:	81 11       	cpse	r24, r1
    5938:	d0 cf       	rjmp	.-96     	; 0x58da <welcome_message+0x8>
    593a:	08 95       	ret

0000593c <OLED_Connectmsg>:
    593c:	8f ec       	ldi	r24, 0xCF	; 207
    593e:	91 e0       	ldi	r25, 0x01	; 1
    5940:	0e 94 90 33 	call	0x6720	; 0x6720 <u8g_FirstPage>
    5944:	63 ee       	ldi	r22, 0xE3	; 227
    5946:	79 e4       	ldi	r23, 0x49	; 73
    5948:	8f ec       	ldi	r24, 0xCF	; 207
    594a:	91 e0       	ldi	r25, 0x01	; 1
    594c:	0e 94 6d 32 	call	0x64da	; 0x64da <u8g_SetFont>
    5950:	28 e2       	ldi	r18, 0x28	; 40
    5952:	31 e0       	ldi	r19, 0x01	; 1
    5954:	48 e1       	ldi	r20, 0x18	; 24
    5956:	6e e0       	ldi	r22, 0x0E	; 14
    5958:	8f ec       	ldi	r24, 0xCF	; 207
    595a:	91 e0       	ldi	r25, 0x01	; 1
    595c:	0e 94 e1 31 	call	0x63c2	; 0x63c2 <u8g_DrawStr>
    5960:	63 ee       	ldi	r22, 0xE3	; 227
    5962:	79 e4       	ldi	r23, 0x49	; 73
    5964:	8f ec       	ldi	r24, 0xCF	; 207
    5966:	91 e0       	ldi	r25, 0x01	; 1
    5968:	0e 94 6d 32 	call	0x64da	; 0x64da <u8g_SetFont>
    596c:	26 e3       	ldi	r18, 0x36	; 54
    596e:	31 e0       	ldi	r19, 0x01	; 1
    5970:	4c e2       	ldi	r20, 0x2C	; 44
    5972:	64 e1       	ldi	r22, 0x14	; 20
    5974:	8f ec       	ldi	r24, 0xCF	; 207
    5976:	91 e0       	ldi	r25, 0x01	; 1
    5978:	0e 94 e1 31 	call	0x63c2	; 0x63c2 <u8g_DrawStr>
    597c:	8f ec       	ldi	r24, 0xCF	; 207
    597e:	91 e0       	ldi	r25, 0x01	; 1
    5980:	0e 94 96 33 	call	0x672c	; 0x672c <u8g_NextPage>
    5984:	81 11       	cpse	r24, r1
    5986:	de cf       	rjmp	.-68     	; 0x5944 <OLED_Connectmsg+0x8>
    5988:	08 95       	ret

0000598a <OLED_Convertvalues>:
    598a:	0f 93       	push	r16
    598c:	1f 93       	push	r17
    598e:	cf 93       	push	r28
    5990:	df 93       	push	r29
    5992:	cd b7       	in	r28, 0x3d	; 61
    5994:	de b7       	in	r29, 0x3e	; 62
    5996:	6e 97       	sbiw	r28, 0x1e	; 30
    5998:	0f b6       	in	r0, 0x3f	; 63
    599a:	f8 94       	cli
    599c:	de bf       	out	0x3e, r29	; 62
    599e:	0f be       	out	0x3f, r0	; 63
    59a0:	cd bf       	out	0x3d, r28	; 61
    59a2:	8c 01       	movw	r16, r24
    59a4:	9e 01       	movw	r18, r28
    59a6:	2b 5d       	subi	r18, 0xDB	; 219
    59a8:	3f 4f       	sbci	r19, 0xFF	; 255
    59aa:	ce 01       	movw	r24, r28
    59ac:	8d 5b       	subi	r24, 0xBD	; 189
    59ae:	9f 4f       	sbci	r25, 0xFF	; 255
    59b0:	fe 01       	movw	r30, r28
    59b2:	ef 59       	subi	r30, 0x9F	; 159
    59b4:	ff 4f       	sbci	r31, 0xFF	; 255
    59b6:	ae 01       	movw	r20, r28
    59b8:	41 58       	subi	r20, 0x81	; 129
    59ba:	5f 4f       	sbci	r21, 0xFF	; 255
    59bc:	d9 01       	movw	r26, r18
    59be:	1d 92       	st	X+, r1
    59c0:	9d 01       	movw	r18, r26
    59c2:	dc 01       	movw	r26, r24
    59c4:	1d 92       	st	X+, r1
    59c6:	cd 01       	movw	r24, r26
    59c8:	11 92       	st	Z+, r1
    59ca:	e4 17       	cp	r30, r20
    59cc:	f5 07       	cpc	r31, r21
    59ce:	b1 f7       	brne	.-20     	; 0x59bc <OLED_Convertvalues+0x32>
    59d0:	4a e0       	ldi	r20, 0x0A	; 10
    59d2:	be 01       	movw	r22, r28
    59d4:	6f 5f       	subi	r22, 0xFF	; 255
    59d6:	7f 4f       	sbci	r23, 0xFF	; 255
    59d8:	cd 57       	subi	r28, 0x7D	; 125
    59da:	df 4f       	sbci	r29, 0xFF	; 255
    59dc:	88 81       	ld	r24, Y
    59de:	99 81       	ldd	r25, Y+1	; 0x01
    59e0:	c3 58       	subi	r28, 0x83	; 131
    59e2:	d0 40       	sbci	r29, 0x00	; 0
    59e4:	0e 94 37 37 	call	0x6e6e	; 0x6e6e <__itoa_ncheck>
    59e8:	89 81       	ldd	r24, Y+1	; 0x01
    59ea:	8d a3       	std	Y+37, r24	; 0x25
    59ec:	8a 81       	ldd	r24, Y+2	; 0x02
    59ee:	8e a3       	std	Y+38, r24	; 0x26
    59f0:	8e e2       	ldi	r24, 0x2E	; 46
    59f2:	8f a3       	std	Y+39, r24	; 0x27
    59f4:	8b 81       	ldd	r24, Y+3	; 0x03
    59f6:	88 a7       	std	Y+40, r24	; 0x28
    59f8:	86 e5       	ldi	r24, 0x56	; 86
    59fa:	89 a7       	std	Y+41, r24	; 0x29
    59fc:	cb 57       	subi	r28, 0x7B	; 123
    59fe:	df 4f       	sbci	r29, 0xFF	; 255
    5a00:	48 81       	ld	r20, Y
    5a02:	59 81       	ldd	r21, Y+1	; 0x01
    5a04:	c5 58       	subi	r28, 0x85	; 133
    5a06:	d0 40       	sbci	r29, 0x00	; 0
    5a08:	9a 01       	movw	r18, r20
    5a0a:	a9 e8       	ldi	r26, 0x89	; 137
    5a0c:	b8 e8       	ldi	r27, 0x88	; 136
    5a0e:	0e 94 28 37 	call	0x6e50	; 0x6e50 <__umulhisi3>
    5a12:	96 95       	lsr	r25
    5a14:	87 95       	ror	r24
    5a16:	92 95       	swap	r25
    5a18:	82 95       	swap	r24
    5a1a:	8f 70       	andi	r24, 0x0F	; 15
    5a1c:	89 27       	eor	r24, r25
    5a1e:	9f 70       	andi	r25, 0x0F	; 15
    5a20:	89 27       	eor	r24, r25
    5a22:	cf 57       	subi	r28, 0x7F	; 127
    5a24:	df 4f       	sbci	r29, 0xFF	; 255
    5a26:	88 83       	st	Y, r24
    5a28:	c1 58       	subi	r28, 0x81	; 129
    5a2a:	d0 40       	sbci	r29, 0x00	; 0
    5a2c:	6c e3       	ldi	r22, 0x3C	; 60
    5a2e:	68 9f       	mul	r22, r24
    5a30:	90 01       	movw	r18, r0
    5a32:	69 9f       	mul	r22, r25
    5a34:	30 0d       	add	r19, r0
    5a36:	11 24       	eor	r1, r1
    5a38:	42 1b       	sub	r20, r18
    5a3a:	53 0b       	sbc	r21, r19
    5a3c:	ce 57       	subi	r28, 0x7E	; 126
    5a3e:	df 4f       	sbci	r29, 0xFF	; 255
    5a40:	48 83       	st	Y, r20
    5a42:	c2 58       	subi	r28, 0x82	; 130
    5a44:	d0 40       	sbci	r29, 0x00	; 0
    5a46:	4a e0       	ldi	r20, 0x0A	; 10
    5a48:	be 01       	movw	r22, r28
    5a4a:	6d 5b       	subi	r22, 0xBD	; 189
    5a4c:	7f 4f       	sbci	r23, 0xFF	; 255
    5a4e:	90 e0       	ldi	r25, 0x00	; 0
    5a50:	0e 94 37 37 	call	0x6e6e	; 0x6e6e <__itoa_ncheck>
    5a54:	ce 57       	subi	r28, 0x7E	; 126
    5a56:	df 4f       	sbci	r29, 0xFF	; 255
    5a58:	88 81       	ld	r24, Y
    5a5a:	c2 58       	subi	r28, 0x82	; 130
    5a5c:	d0 40       	sbci	r29, 0x00	; 0
    5a5e:	4a e0       	ldi	r20, 0x0A	; 10
    5a60:	be 01       	movw	r22, r28
    5a62:	6f 59       	subi	r22, 0x9F	; 159
    5a64:	7f 4f       	sbci	r23, 0xFF	; 255
    5a66:	90 e0       	ldi	r25, 0x00	; 0
    5a68:	0e 94 37 37 	call	0x6e6e	; 0x6e6e <__itoa_ncheck>
    5a6c:	25 96       	adiw	r28, 0x05	; 5
    5a6e:	8f ad       	ldd	r24, Y+63	; 0x3f
    5a70:	25 97       	sbiw	r28, 0x05	; 5
    5a72:	81 11       	cpse	r24, r1
    5a74:	0b c0       	rjmp	.+22     	; 0x5a8c <OLED_Convertvalues+0x102>
    5a76:	88 e6       	ldi	r24, 0x68	; 104
    5a78:	25 96       	adiw	r28, 0x05	; 5
    5a7a:	8f af       	std	Y+63, r24	; 0x3f
    5a7c:	25 97       	sbiw	r28, 0x05	; 5
    5a7e:	81 e0       	ldi	r24, 0x01	; 1
    5a80:	c1 58       	subi	r28, 0x81	; 129
    5a82:	df 4f       	sbci	r29, 0xFF	; 255
    5a84:	88 83       	st	Y, r24
    5a86:	cf 57       	subi	r28, 0x7F	; 127
    5a88:	d0 40       	sbci	r29, 0x00	; 0
    5a8a:	0a c0       	rjmp	.+20     	; 0x5aa0 <OLED_Convertvalues+0x116>
    5a8c:	88 e6       	ldi	r24, 0x68	; 104
    5a8e:	26 96       	adiw	r28, 0x06	; 6
    5a90:	8f af       	std	Y+63, r24	; 0x3f
    5a92:	26 97       	sbiw	r28, 0x06	; 6
    5a94:	82 e0       	ldi	r24, 0x02	; 2
    5a96:	c1 58       	subi	r28, 0x81	; 129
    5a98:	df 4f       	sbci	r29, 0xFF	; 255
    5a9a:	88 83       	st	Y, r24
    5a9c:	cf 57       	subi	r28, 0x7F	; 127
    5a9e:	d0 40       	sbci	r29, 0x00	; 0
    5aa0:	a3 96       	adiw	r28, 0x23	; 35
    5aa2:	8f ad       	ldd	r24, Y+63	; 0x3f
    5aa4:	a3 97       	sbiw	r28, 0x23	; 35
    5aa6:	81 11       	cpse	r24, r1
    5aa8:	13 c0       	rjmp	.+38     	; 0x5ad0 <OLED_Convertvalues+0x146>
    5aaa:	8d e6       	ldi	r24, 0x6D	; 109
    5aac:	a3 96       	adiw	r28, 0x23	; 35
    5aae:	8f af       	std	Y+63, r24	; 0x3f
    5ab0:	a3 97       	sbiw	r28, 0x23	; 35
    5ab2:	89 e6       	ldi	r24, 0x69	; 105
    5ab4:	a4 96       	adiw	r28, 0x24	; 36
    5ab6:	8f af       	std	Y+63, r24	; 0x3f
    5ab8:	a4 97       	sbiw	r28, 0x24	; 36
    5aba:	8e e6       	ldi	r24, 0x6E	; 110
    5abc:	a5 96       	adiw	r28, 0x25	; 37
    5abe:	8f af       	std	Y+63, r24	; 0x3f
    5ac0:	a5 97       	sbiw	r28, 0x25	; 37
    5ac2:	81 e0       	ldi	r24, 0x01	; 1
    5ac4:	c0 58       	subi	r28, 0x80	; 128
    5ac6:	df 4f       	sbci	r29, 0xFF	; 255
    5ac8:	88 83       	st	Y, r24
    5aca:	c0 58       	subi	r28, 0x80	; 128
    5acc:	d0 40       	sbci	r29, 0x00	; 0
    5ace:	12 c0       	rjmp	.+36     	; 0x5af4 <OLED_Convertvalues+0x16a>
    5ad0:	8d e6       	ldi	r24, 0x6D	; 109
    5ad2:	a4 96       	adiw	r28, 0x24	; 36
    5ad4:	8f af       	std	Y+63, r24	; 0x3f
    5ad6:	a4 97       	sbiw	r28, 0x24	; 36
    5ad8:	89 e6       	ldi	r24, 0x69	; 105
    5ada:	a5 96       	adiw	r28, 0x25	; 37
    5adc:	8f af       	std	Y+63, r24	; 0x3f
    5ade:	a5 97       	sbiw	r28, 0x25	; 37
    5ae0:	8e e6       	ldi	r24, 0x6E	; 110
    5ae2:	a6 96       	adiw	r28, 0x26	; 38
    5ae4:	8f af       	std	Y+63, r24	; 0x3f
    5ae6:	a6 97       	sbiw	r28, 0x26	; 38
    5ae8:	82 e0       	ldi	r24, 0x02	; 2
    5aea:	c0 58       	subi	r28, 0x80	; 128
    5aec:	df 4f       	sbci	r29, 0xFF	; 255
    5aee:	88 83       	st	Y, r24
    5af0:	c0 58       	subi	r28, 0x80	; 128
    5af2:	d0 40       	sbci	r29, 0x00	; 0
    5af4:	82 e6       	ldi	r24, 0x62	; 98
    5af6:	fe 01       	movw	r30, r28
    5af8:	b5 96       	adiw	r30, 0x25	; 37
    5afa:	d8 01       	movw	r26, r16
    5afc:	01 90       	ld	r0, Z+
    5afe:	0d 92       	st	X+, r0
    5b00:	8a 95       	dec	r24
    5b02:	e1 f7       	brne	.-8      	; 0x5afc <OLED_Convertvalues+0x172>
    5b04:	c8 01       	movw	r24, r16
    5b06:	6e 96       	adiw	r28, 0x1e	; 30
    5b08:	0f b6       	in	r0, 0x3f	; 63
    5b0a:	f8 94       	cli
    5b0c:	de bf       	out	0x3e, r29	; 62
    5b0e:	0f be       	out	0x3f, r0	; 63
    5b10:	cd bf       	out	0x3d, r28	; 61
    5b12:	df 91       	pop	r29
    5b14:	cf 91       	pop	r28
    5b16:	1f 91       	pop	r17
    5b18:	0f 91       	pop	r16
    5b1a:	08 95       	ret

00005b1c <OLED_clrscreen>:

 void OLED_clrscreen(void){

    u8g_FirstPage(&oled_display);
    5b1c:	8f ec       	ldi	r24, 0xCF	; 207
    5b1e:	91 e0       	ldi	r25, 0x01	; 1
    5b20:	0e 94 90 33 	call	0x6720	; 0x6720 <u8g_FirstPage>
    while( u8g_NextPage(&oled_display) );
    5b24:	8f ec       	ldi	r24, 0xCF	; 207
    5b26:	91 e0       	ldi	r25, 0x01	; 1
    5b28:	0e 94 96 33 	call	0x672c	; 0x672c <u8g_NextPage>
    5b2c:	81 11       	cpse	r24, r1
    5b2e:	fa cf       	rjmp	.-12     	; 0x5b24 <OLED_clrscreen+0x8>

    5b30:	08 95       	ret

00005b32 <u8g_IsBBXIntersection>:
  }
}


uint8_t u8g_IsBBXIntersection(u8g_t *u8g, u8g_uint_t x, u8g_uint_t y, u8g_uint_t w, u8g_uint_t h)
{
    5b32:	0f 93       	push	r16
    5b34:	fc 01       	movw	r30, r24
    5b36:	01 50       	subi	r16, 0x01	; 1
  register u8g_uint_t tmp;
  tmp = y;
  tmp += h;
  tmp--;
    5b38:	04 0f       	add	r16, r20
  if ( u8g_is_intersection_decision_tree(u8g->current_page.y0, u8g->current_page.y1, y, tmp) == 0 )
    5b3a:	84 a9       	ldd	r24, Z+52	; 0x34
//static uint8_t u8g_is_intersection_decision_tree(u8g_uint_t a0, u8g_uint_t a1, u8g_uint_t v0, u8g_uint_t v1) U8G_ALWAYS_INLINE;
static uint8_t U8G_ALWAYS_INLINE u8g_is_intersection_decision_tree(u8g_uint_t a0, u8g_uint_t a1, u8g_uint_t v0, u8g_uint_t v1) 
{
  /* surprisingly the macro leads to larger code */
  /* return U8G_IS_INTERSECTION_MACRO(a0,a1,v0,v1); */
  if ( v0 <= a1 )
    5b3c:	96 a9       	ldd	r25, Z+54	; 0x36
    5b3e:	94 17       	cp	r25, r20
    5b40:	38 f0       	brcs	.+14     	; 0x5b50 <u8g_IsBBXIntersection+0x1e>
  {
    if ( v1 >= a0 )
    5b42:	08 17       	cp	r16, r24
    5b44:	68 f4       	brcc	.+26     	; 0x5b60 <u8g_IsBBXIntersection+0x2e>
    {
      return 1;
    }
    else
    {
      if ( v0 > v1 )
    5b46:	81 e0       	ldi	r24, 0x01	; 1
    5b48:	04 17       	cp	r16, r20
    5b4a:	40 f0       	brcs	.+16     	; 0x5b5c <u8g_IsBBXIntersection+0x2a>
    5b4c:	80 e0       	ldi	r24, 0x00	; 0
    5b4e:	06 c0       	rjmp	.+12     	; 0x5b5c <u8g_IsBBXIntersection+0x2a>
      }
    }
  }
  else
  {
    if ( v1 >= a0 )
    5b50:	08 17       	cp	r16, r24
    5b52:	d0 f0       	brcs	.+52     	; 0x5b88 <u8g_IsBBXIntersection+0x56>
    {
      if ( v0 > v1 )
    5b54:	81 e0       	ldi	r24, 0x01	; 1
    5b56:	04 17       	cp	r16, r20
    5b58:	08 f0       	brcs	.+2      	; 0x5b5c <u8g_IsBBXIntersection+0x2a>
    5b5a:	80 e0       	ldi	r24, 0x00	; 0
{
  register u8g_uint_t tmp;
  tmp = y;
  tmp += h;
  tmp--;
  if ( u8g_is_intersection_decision_tree(u8g->current_page.y0, u8g->current_page.y1, y, tmp) == 0 )
    5b5c:	88 23       	and	r24, r24
    5b5e:	c9 f0       	breq	.+50     	; 0x5b92 <u8g_IsBBXIntersection+0x60>
    5b60:	21 50       	subi	r18, 0x01	; 1
    return 0; 
  
  tmp = x;
  tmp += w;
  tmp--;
    5b62:	26 0f       	add	r18, r22
  return u8g_is_intersection_decision_tree(u8g->current_page.x0, u8g->current_page.x1, x, tmp);
    5b64:	83 a9       	ldd	r24, Z+51	; 0x33
//static uint8_t u8g_is_intersection_decision_tree(u8g_uint_t a0, u8g_uint_t a1, u8g_uint_t v0, u8g_uint_t v1) U8G_ALWAYS_INLINE;
static uint8_t U8G_ALWAYS_INLINE u8g_is_intersection_decision_tree(u8g_uint_t a0, u8g_uint_t a1, u8g_uint_t v0, u8g_uint_t v1) 
{
  /* surprisingly the macro leads to larger code */
  /* return U8G_IS_INTERSECTION_MACRO(a0,a1,v0,v1); */
  if ( v0 <= a1 )
    5b66:	95 a9       	ldd	r25, Z+53	; 0x35
    5b68:	96 17       	cp	r25, r22
    5b6a:	38 f0       	brcs	.+14     	; 0x5b7a <u8g_IsBBXIntersection+0x48>
  {
    if ( v1 >= a0 )
    5b6c:	28 17       	cp	r18, r24
    5b6e:	70 f4       	brcc	.+28     	; 0x5b8c <u8g_IsBBXIntersection+0x5a>
    {
      return 1;
    }
    else
    {
      if ( v0 > v1 )
    5b70:	81 e0       	ldi	r24, 0x01	; 1
    5b72:	26 17       	cp	r18, r22
    5b74:	70 f0       	brcs	.+28     	; 0x5b92 <u8g_IsBBXIntersection+0x60>
    5b76:	80 e0       	ldi	r24, 0x00	; 0
    5b78:	0c c0       	rjmp	.+24     	; 0x5b92 <u8g_IsBBXIntersection+0x60>
      }
    }
  }
  else
  {
    if ( v1 >= a0 )
    5b7a:	28 17       	cp	r18, r24
    5b7c:	48 f0       	brcs	.+18     	; 0x5b90 <u8g_IsBBXIntersection+0x5e>
    {
      if ( v0 > v1 )
    5b7e:	81 e0       	ldi	r24, 0x01	; 1
    5b80:	26 17       	cp	r18, r22
    5b82:	38 f0       	brcs	.+14     	; 0x5b92 <u8g_IsBBXIntersection+0x60>
    5b84:	80 e0       	ldi	r24, 0x00	; 0
    5b86:	05 c0       	rjmp	.+10     	; 0x5b92 <u8g_IsBBXIntersection+0x60>
  register u8g_uint_t tmp;
  tmp = y;
  tmp += h;
  tmp--;
  if ( u8g_is_intersection_decision_tree(u8g->current_page.y0, u8g->current_page.y1, y, tmp) == 0 )
    return 0; 
    5b88:	80 e0       	ldi	r24, 0x00	; 0
    5b8a:	03 c0       	rjmp	.+6      	; 0x5b92 <u8g_IsBBXIntersection+0x60>
  /* return U8G_IS_INTERSECTION_MACRO(a0,a1,v0,v1); */
  if ( v0 <= a1 )
  {
    if ( v1 >= a0 )
    {
      return 1;
    5b8c:	81 e0       	ldi	r24, 0x01	; 1
    5b8e:	01 c0       	rjmp	.+2      	; 0x5b92 <u8g_IsBBXIntersection+0x60>
	return 0;
      }
    }
    else
    {
      return 0;
    5b90:	80 e0       	ldi	r24, 0x00	; 0
  
  tmp = x;
  tmp += w;
  tmp--;
  return u8g_is_intersection_decision_tree(u8g->current_page.x0, u8g->current_page.x1, x, tmp);
}
    5b92:	0f 91       	pop	r16
    5b94:	08 95       	ret

00005b96 <u8g_InitCom>:
}

uint8_t u8g_WriteSequenceP(u8g_t *u8g, u8g_dev_t *dev, uint8_t cnt, const uint8_t *seq)
{
  return dev->com_fn(u8g, U8G_COM_MSG_WRITE_SEQ_P, cnt, (void *)seq);
}
    5b96:	db 01       	movw	r26, r22
    5b98:	14 96       	adiw	r26, 0x04	; 4
    5b9a:	ed 91       	ld	r30, X+
    5b9c:	fc 91       	ld	r31, X
    5b9e:	15 97       	sbiw	r26, 0x05	; 5
    5ba0:	20 e0       	ldi	r18, 0x00	; 0
    5ba2:	30 e0       	ldi	r19, 0x00	; 0
    5ba4:	61 e0       	ldi	r22, 0x01	; 1
    5ba6:	09 95       	icall
    5ba8:	08 95       	ret

00005baa <u8g_SetChipSelect>:
    5baa:	db 01       	movw	r26, r22
    5bac:	14 96       	adiw	r26, 0x04	; 4
    5bae:	ed 91       	ld	r30, X+
    5bb0:	fc 91       	ld	r31, X
    5bb2:	15 97       	sbiw	r26, 0x05	; 5
    5bb4:	20 e0       	ldi	r18, 0x00	; 0
    5bb6:	30 e0       	ldi	r19, 0x00	; 0
    5bb8:	63 e0       	ldi	r22, 0x03	; 3
    5bba:	09 95       	icall
    5bbc:	08 95       	ret

00005bbe <u8g_SetResetLow>:
    5bbe:	db 01       	movw	r26, r22
    5bc0:	14 96       	adiw	r26, 0x04	; 4
    5bc2:	ed 91       	ld	r30, X+
    5bc4:	fc 91       	ld	r31, X
    5bc6:	15 97       	sbiw	r26, 0x05	; 5
    5bc8:	20 e0       	ldi	r18, 0x00	; 0
    5bca:	30 e0       	ldi	r19, 0x00	; 0
    5bcc:	40 e0       	ldi	r20, 0x00	; 0
    5bce:	64 e0       	ldi	r22, 0x04	; 4
    5bd0:	09 95       	icall
    5bd2:	08 95       	ret

00005bd4 <u8g_SetResetHigh>:
    5bd4:	db 01       	movw	r26, r22
    5bd6:	14 96       	adiw	r26, 0x04	; 4
    5bd8:	ed 91       	ld	r30, X+
    5bda:	fc 91       	ld	r31, X
    5bdc:	15 97       	sbiw	r26, 0x05	; 5
    5bde:	20 e0       	ldi	r18, 0x00	; 0
    5be0:	30 e0       	ldi	r19, 0x00	; 0
    5be2:	41 e0       	ldi	r20, 0x01	; 1
    5be4:	64 e0       	ldi	r22, 0x04	; 4
    5be6:	09 95       	icall
    5be8:	08 95       	ret

00005bea <u8g_SetAddress>:
    5bea:	db 01       	movw	r26, r22
    5bec:	14 96       	adiw	r26, 0x04	; 4
    5bee:	ed 91       	ld	r30, X+
    5bf0:	fc 91       	ld	r31, X
    5bf2:	15 97       	sbiw	r26, 0x05	; 5
    5bf4:	20 e0       	ldi	r18, 0x00	; 0
    5bf6:	30 e0       	ldi	r19, 0x00	; 0
    5bf8:	62 e0       	ldi	r22, 0x02	; 2
    5bfa:	09 95       	icall
    5bfc:	08 95       	ret

00005bfe <u8g_WriteByte>:
    5bfe:	db 01       	movw	r26, r22
    5c00:	14 96       	adiw	r26, 0x04	; 4
    5c02:	ed 91       	ld	r30, X+
    5c04:	fc 91       	ld	r31, X
    5c06:	15 97       	sbiw	r26, 0x05	; 5
    5c08:	20 e0       	ldi	r18, 0x00	; 0
    5c0a:	30 e0       	ldi	r19, 0x00	; 0
    5c0c:	65 e0       	ldi	r22, 0x05	; 5
    5c0e:	09 95       	icall
    5c10:	08 95       	ret

00005c12 <u8g_WriteSequence>:
    5c12:	db 01       	movw	r26, r22
    5c14:	14 96       	adiw	r26, 0x04	; 4
    5c16:	ed 91       	ld	r30, X+
    5c18:	fc 91       	ld	r31, X
    5c1a:	15 97       	sbiw	r26, 0x05	; 5
    5c1c:	66 e0       	ldi	r22, 0x06	; 6
    5c1e:	09 95       	icall
    5c20:	08 95       	ret

00005c22 <u8g_WriteEscSeqP>:
#define U8G_ESC_255 255, 255
#define U8G_ESC_RST(x) 255, (0xc0 | ((x)&0x0f))

*/
uint8_t u8g_WriteEscSeqP(u8g_t *u8g, u8g_dev_t *dev, const uint8_t *esc_seq)
{
    5c22:	af 92       	push	r10
    5c24:	bf 92       	push	r11
    5c26:	cf 92       	push	r12
    5c28:	df 92       	push	r13
    5c2a:	ef 92       	push	r14
    5c2c:	ff 92       	push	r15
    5c2e:	0f 93       	push	r16
    5c30:	1f 93       	push	r17
    5c32:	cf 93       	push	r28
    5c34:	df 93       	push	r29
    5c36:	6c 01       	movw	r12, r24
    5c38:	7b 01       	movw	r14, r22
    5c3a:	8a 01       	movw	r16, r20
  uint8_t is_escape = 0;
    5c3c:	d0 e0       	ldi	r29, 0x00	; 0
      }
      else if ( value <= 127 )
      {
        u8g_Delay(value);
      }
      is_escape = 0;
    5c3e:	b1 2c       	mov	r11, r1
        if ( u8g_WriteByte(u8g, dev, value) == 0 )
          return 0;
      }
      else
      {
        is_escape = 1;
    5c40:	aa 24       	eor	r10, r10
    5c42:	a3 94       	inc	r10
{
  uint8_t is_escape = 0;
  uint8_t value;
  for(;;)
  {
    value = u8g_pgm_read(esc_seq);
    5c44:	f8 01       	movw	r30, r16
    5c46:	c4 91       	lpm	r28, Z
    if ( is_escape == 0 )
    5c48:	d1 11       	cpse	r29, r1
    5c4a:	0b c0       	rjmp	.+22     	; 0x5c62 <u8g_WriteEscSeqP+0x40>
    {
      if ( value != 255 )
    5c4c:	cf 3f       	cpi	r28, 0xFF	; 255
    5c4e:	09 f4       	brne	.+2      	; 0x5c52 <u8g_WriteEscSeqP+0x30>
    5c50:	4a c0       	rjmp	.+148    	; 0x5ce6 <u8g_WriteEscSeqP+0xc4>
      {
        if ( u8g_WriteByte(u8g, dev, value) == 0 )
    5c52:	4c 2f       	mov	r20, r28
    5c54:	b7 01       	movw	r22, r14
    5c56:	c6 01       	movw	r24, r12
    5c58:	0e 94 ff 2d 	call	0x5bfe	; 0x5bfe <u8g_WriteByte>
    5c5c:	81 11       	cpse	r24, r1
    5c5e:	48 c0       	rjmp	.+144    	; 0x5cf0 <u8g_WriteEscSeqP+0xce>
    5c60:	4b c0       	rjmp	.+150    	; 0x5cf8 <u8g_WriteEscSeqP+0xd6>
        is_escape = 1;
      }
    }
    else
    {
      if ( value == 255 )
    5c62:	cf 3f       	cpi	r28, 0xFF	; 255
    5c64:	51 f4       	brne	.+20     	; 0x5c7a <u8g_WriteEscSeqP+0x58>
      {
        if ( u8g_WriteByte(u8g, dev, value) == 0 )
    5c66:	4f ef       	ldi	r20, 0xFF	; 255
    5c68:	b7 01       	movw	r22, r14
    5c6a:	c6 01       	movw	r24, r12
    5c6c:	0e 94 ff 2d 	call	0x5bfe	; 0x5bfe <u8g_WriteByte>
    5c70:	88 23       	and	r24, r24
    5c72:	09 f4       	brne	.+2      	; 0x5c76 <u8g_WriteEscSeqP+0x54>
    5c74:	41 c0       	rjmp	.+130    	; 0x5cf8 <u8g_WriteEscSeqP+0xd6>
      }
      else if ( value <= 127 )
      {
        u8g_Delay(value);
      }
      is_escape = 0;
    5c76:	db 2d       	mov	r29, r11
    5c78:	3b c0       	rjmp	.+118    	; 0x5cf0 <u8g_WriteEscSeqP+0xce>
      if ( value == 255 )
      {
        if ( u8g_WriteByte(u8g, dev, value) == 0 )
          return 0;
      }
      else if ( value == 254 )
    5c7a:	ce 3f       	cpi	r28, 0xFE	; 254
    5c7c:	e1 f1       	breq	.+120    	; 0x5cf6 <u8g_WriteEscSeqP+0xd4>
      {
        break;
      }
      else if ( value >= 0x0f0 )
    5c7e:	c0 3f       	cpi	r28, 0xF0	; 240
    5c80:	a0 f5       	brcc	.+104    	; 0x5cea <u8g_WriteEscSeqP+0xc8>
      {
        /* not yet used, do nothing */
      }
      else if ( value >= 0xe0  )
    5c82:	c0 3e       	cpi	r28, 0xE0	; 224
    5c84:	40 f0       	brcs	.+16     	; 0x5c96 <u8g_WriteEscSeqP+0x74>
      {
        u8g_SetAddress(u8g, dev, value & 0x0f);
    5c86:	4c 2f       	mov	r20, r28
    5c88:	4f 70       	andi	r20, 0x0F	; 15
    5c8a:	b7 01       	movw	r22, r14
    5c8c:	c6 01       	movw	r24, r12
    5c8e:	0e 94 f5 2d 	call	0x5bea	; 0x5bea <u8g_SetAddress>
      }
      else if ( value <= 127 )
      {
        u8g_Delay(value);
      }
      is_escape = 0;
    5c92:	db 2d       	mov	r29, r11
    5c94:	2d c0       	rjmp	.+90     	; 0x5cf0 <u8g_WriteEscSeqP+0xce>
      }
      else if ( value >= 0xe0  )
      {
        u8g_SetAddress(u8g, dev, value & 0x0f);
      }
      else if ( value >= 0xd0 )
    5c96:	c0 3d       	cpi	r28, 0xD0	; 208
    5c98:	40 f0       	brcs	.+16     	; 0x5caa <u8g_WriteEscSeqP+0x88>
      {
        u8g_SetChipSelect(u8g, dev, value & 0x0f);
    5c9a:	4c 2f       	mov	r20, r28
    5c9c:	4f 70       	andi	r20, 0x0F	; 15
    5c9e:	b7 01       	movw	r22, r14
    5ca0:	c6 01       	movw	r24, r12
    5ca2:	0e 94 d5 2d 	call	0x5baa	; 0x5baa <u8g_SetChipSelect>
      }
      else if ( value <= 127 )
      {
        u8g_Delay(value);
      }
      is_escape = 0;
    5ca6:	db 2d       	mov	r29, r11
    5ca8:	23 c0       	rjmp	.+70     	; 0x5cf0 <u8g_WriteEscSeqP+0xce>
      }
      else if ( value >= 0xd0 )
      {
        u8g_SetChipSelect(u8g, dev, value & 0x0f);
      }
      else if ( value >= 0xc0 )
    5caa:	c0 3c       	cpi	r28, 0xC0	; 192
    5cac:	a0 f0       	brcs	.+40     	; 0x5cd6 <u8g_WriteEscSeqP+0xb4>
      {
        u8g_SetResetLow(u8g, dev);
    5cae:	b7 01       	movw	r22, r14
    5cb0:	c6 01       	movw	r24, r12
    5cb2:	0e 94 df 2d 	call	0x5bbe	; 0x5bbe <u8g_SetResetLow>
        value &= 0x0f;
        value <<= 4;
    5cb6:	c2 95       	swap	r28
    5cb8:	c0 7f       	andi	r28, 0xF0	; 240
        value+=2;
    5cba:	ce 5f       	subi	r28, 0xFE	; 254
        u8g_Delay(value);
    5cbc:	d0 e0       	ldi	r29, 0x00	; 0
    5cbe:	ce 01       	movw	r24, r28
    5cc0:	0e 94 f9 2f 	call	0x5ff2	; 0x5ff2 <u8g_Delay>
        u8g_SetResetHigh(u8g, dev);
    5cc4:	b7 01       	movw	r22, r14
    5cc6:	c6 01       	movw	r24, r12
    5cc8:	0e 94 ea 2d 	call	0x5bd4	; 0x5bd4 <u8g_SetResetHigh>
        u8g_Delay(value);
    5ccc:	ce 01       	movw	r24, r28
    5cce:	0e 94 f9 2f 	call	0x5ff2	; 0x5ff2 <u8g_Delay>
      }
      else if ( value <= 127 )
      {
        u8g_Delay(value);
      }
      is_escape = 0;
    5cd2:	db 2d       	mov	r29, r11
    5cd4:	0d c0       	rjmp	.+26     	; 0x5cf0 <u8g_WriteEscSeqP+0xce>
      else if ( value >= 0xbe )
      {
	/* not yet implemented */
        /* u8g_SetVCC(u8g, dev, value & 0x01); */
      }
      else if ( value <= 127 )
    5cd6:	cc 23       	and	r28, r28
    5cd8:	54 f0       	brlt	.+20     	; 0x5cee <u8g_WriteEscSeqP+0xcc>
      {
        u8g_Delay(value);
    5cda:	8c 2f       	mov	r24, r28
    5cdc:	90 e0       	ldi	r25, 0x00	; 0
    5cde:	0e 94 f9 2f 	call	0x5ff2	; 0x5ff2 <u8g_Delay>
      }
      is_escape = 0;
    5ce2:	db 2d       	mov	r29, r11
    5ce4:	05 c0       	rjmp	.+10     	; 0x5cf0 <u8g_WriteEscSeqP+0xce>
        if ( u8g_WriteByte(u8g, dev, value) == 0 )
          return 0;
      }
      else
      {
        is_escape = 1;
    5ce6:	da 2d       	mov	r29, r10
    5ce8:	03 c0       	rjmp	.+6      	; 0x5cf0 <u8g_WriteEscSeqP+0xce>
      }
      else if ( value <= 127 )
      {
        u8g_Delay(value);
      }
      is_escape = 0;
    5cea:	db 2d       	mov	r29, r11
    5cec:	01 c0       	rjmp	.+2      	; 0x5cf0 <u8g_WriteEscSeqP+0xce>
    5cee:	db 2d       	mov	r29, r11
    }
    esc_seq++;
    5cf0:	0f 5f       	subi	r16, 0xFF	; 255
    5cf2:	1f 4f       	sbci	r17, 0xFF	; 255
  }
    5cf4:	a7 cf       	rjmp	.-178    	; 0x5c44 <u8g_WriteEscSeqP+0x22>
  return 1;
    5cf6:	81 e0       	ldi	r24, 0x01	; 1
}
    5cf8:	df 91       	pop	r29
    5cfa:	cf 91       	pop	r28
    5cfc:	1f 91       	pop	r17
    5cfe:	0f 91       	pop	r16
    5d00:	ff 90       	pop	r15
    5d02:	ef 90       	pop	r14
    5d04:	df 90       	pop	r13
    5d06:	cf 90       	pop	r12
    5d08:	bf 90       	pop	r11
    5d0a:	af 90       	pop	r10
    5d0c:	08 95       	ret

00005d0e <u8g_com_arduino_ssd_start_sequence>:
//#define I2C_CMD_MODE  0x080
#define I2C_CMD_MODE    0x000
#define I2C_DATA_MODE   0x040

uint8_t u8g_com_arduino_ssd_start_sequence(u8g_t *u8g)
{
    5d0e:	cf 93       	push	r28
    5d10:	df 93       	push	r29
  /* are we requested to set the a0 state? */
  if ( u8g->pin_list[U8G_PI_SET_A0] == 0 )
    5d12:	fc 01       	movw	r30, r24
    5d14:	23 a5       	ldd	r18, Z+43	; 0x2b
    5d16:	22 23       	and	r18, r18
    5d18:	b1 f0       	breq	.+44     	; 0x5d46 <u8g_com_arduino_ssd_start_sequence+0x38>
    5d1a:	ec 01       	movw	r28, r24
    return 1;

  /* setup bus, might be a repeated start */
  if ( u8g_i2c_start(I2C_SLA) == 0 )
    5d1c:	88 e7       	ldi	r24, 0x78	; 120
    5d1e:	0e 94 91 2f 	call	0x5f22	; 0x5f22 <u8g_i2c_start>
    5d22:	88 23       	and	r24, r24
    5d24:	89 f0       	breq	.+34     	; 0x5d48 <u8g_com_arduino_ssd_start_sequence+0x3a>
    return 0;
  if ( u8g->pin_list[U8G_PI_A0_STATE] == 0 )
    5d26:	8e a1       	ldd	r24, Y+38	; 0x26
    5d28:	81 11       	cpse	r24, r1
    5d2a:	05 c0       	rjmp	.+10     	; 0x5d36 <u8g_com_arduino_ssd_start_sequence+0x28>
  {
    if ( u8g_i2c_send_byte(I2C_CMD_MODE) == 0 )
    5d2c:	0e 94 ce 2f 	call	0x5f9c	; 0x5f9c <u8g_i2c_send_byte>
    5d30:	81 11       	cpse	r24, r1
    5d32:	06 c0       	rjmp	.+12     	; 0x5d40 <u8g_com_arduino_ssd_start_sequence+0x32>
    5d34:	09 c0       	rjmp	.+18     	; 0x5d48 <u8g_com_arduino_ssd_start_sequence+0x3a>
      return 0;
  }
  else
  {
    if ( u8g_i2c_send_byte(I2C_DATA_MODE) == 0 )
    5d36:	80 e4       	ldi	r24, 0x40	; 64
    5d38:	0e 94 ce 2f 	call	0x5f9c	; 0x5f9c <u8g_i2c_send_byte>
    5d3c:	88 23       	and	r24, r24
    5d3e:	21 f0       	breq	.+8      	; 0x5d48 <u8g_com_arduino_ssd_start_sequence+0x3a>
      return 0;
  }

  u8g->pin_list[U8G_PI_SET_A0] = 0;
    5d40:	1b a6       	std	Y+43, r1	; 0x2b
  return 1;
    5d42:	81 e0       	ldi	r24, 0x01	; 1
    5d44:	01 c0       	rjmp	.+2      	; 0x5d48 <u8g_com_arduino_ssd_start_sequence+0x3a>

uint8_t u8g_com_arduino_ssd_start_sequence(u8g_t *u8g)
{
  /* are we requested to set the a0 state? */
  if ( u8g->pin_list[U8G_PI_SET_A0] == 0 )
    return 1;
    5d46:	81 e0       	ldi	r24, 0x01	; 1
      return 0;
  }

  u8g->pin_list[U8G_PI_SET_A0] = 0;
  return 1;
}
    5d48:	df 91       	pop	r29
    5d4a:	cf 91       	pop	r28
    5d4c:	08 95       	ret

00005d4e <u8g_com_arduino_ssd_i2c_fn>:

uint8_t u8g_com_arduino_ssd_i2c_fn(u8g_t *u8g, uint8_t msg, uint8_t arg_val, void *arg_ptr)
{
    5d4e:	cf 92       	push	r12
    5d50:	df 92       	push	r13
    5d52:	ef 92       	push	r14
    5d54:	ff 92       	push	r15
    5d56:	0f 93       	push	r16
    5d58:	1f 93       	push	r17
    5d5a:	cf 93       	push	r28
    5d5c:	e4 2e       	mov	r14, r20
    5d5e:	89 01       	movw	r16, r18
  switch(msg)
    5d60:	63 30       	cpi	r22, 0x03	; 3
    5d62:	b1 f0       	breq	.+44     	; 0x5d90 <u8g_com_arduino_ssd_i2c_fn+0x42>
    5d64:	30 f4       	brcc	.+12     	; 0x5d72 <u8g_com_arduino_ssd_i2c_fn+0x24>
    5d66:	61 30       	cpi	r22, 0x01	; 1
    5d68:	69 f0       	breq	.+26     	; 0x5d84 <u8g_com_arduino_ssd_i2c_fn+0x36>
    5d6a:	62 30       	cpi	r22, 0x02	; 2
    5d6c:	09 f4       	brne	.+2      	; 0x5d70 <u8g_com_arduino_ssd_i2c_fn+0x22>
    5d6e:	6f c0       	rjmp	.+222    	; 0x5e4e <u8g_com_arduino_ssd_i2c_fn+0x100>
    5d70:	74 c0       	rjmp	.+232    	; 0x5e5a <u8g_com_arduino_ssd_i2c_fn+0x10c>
    5d72:	66 30       	cpi	r22, 0x06	; 6
    5d74:	41 f1       	breq	.+80     	; 0x5dc6 <u8g_com_arduino_ssd_i2c_fn+0x78>
    5d76:	67 30       	cpi	r22, 0x07	; 7
    5d78:	09 f4       	brne	.+2      	; 0x5d7c <u8g_com_arduino_ssd_i2c_fn+0x2e>
    5d7a:	48 c0       	rjmp	.+144    	; 0x5e0c <u8g_com_arduino_ssd_i2c_fn+0xbe>
    5d7c:	65 30       	cpi	r22, 0x05	; 5
    5d7e:	09 f0       	breq	.+2      	; 0x5d82 <u8g_com_arduino_ssd_i2c_fn+0x34>
    5d80:	6c c0       	rjmp	.+216    	; 0x5e5a <u8g_com_arduino_ssd_i2c_fn+0x10c>
    5d82:	10 c0       	rjmp	.+32     	; 0x5da4 <u8g_com_arduino_ssd_i2c_fn+0x56>
    case U8G_COM_MSG_INIT:
      //u8g_com_arduino_digital_write(u8g, U8G_PI_SCL, HIGH);
      //u8g_com_arduino_digital_write(u8g, U8G_PI_SDA, HIGH);
      //u8g->pin_list[U8G_PI_A0_STATE] = 0;       /* inital RS state: unknown mode */
    
      u8g_i2c_init(u8g->pin_list[U8G_PI_I2C_OPTION]);
    5d84:	fc 01       	movw	r30, r24
    5d86:	86 a5       	ldd	r24, Z+46	; 0x2e
    5d88:	0e 94 49 2f 	call	0x5e92	; 0x5e92 <u8g_i2c_init>
      }
      */
#endif
      break;
  }
  return 1;
    5d8c:	c1 e0       	ldi	r28, 0x01	; 1
      //u8g_com_arduino_digital_write(u8g, U8G_PI_SDA, HIGH);
      //u8g->pin_list[U8G_PI_A0_STATE] = 0;       /* inital RS state: unknown mode */
    
      u8g_i2c_init(u8g->pin_list[U8G_PI_I2C_OPTION]);

      break;
    5d8e:	6a c0       	rjmp	.+212    	; 0x5e64 <u8g_com_arduino_ssd_i2c_fn+0x116>
      /* Currently disabled, but it could be enable. Previous restrictions have been removed */
      /* u8g_com_arduino_digital_write(u8g, U8G_PI_RESET, arg_val); */
      break;
      
    case U8G_COM_MSG_CHIP_SELECT:
      u8g->pin_list[U8G_PI_A0_STATE] = 0;
    5d90:	fc 01       	movw	r30, r24
    5d92:	16 a2       	std	Z+38, r1	; 0x26
      u8g->pin_list[U8G_PI_SET_A0] = 1;		/* force a0 to set again, also forces start condition */
    5d94:	21 e0       	ldi	r18, 0x01	; 1
    5d96:	23 a7       	std	Z+43, r18	; 0x2b
      if ( arg_val == 0 )
    5d98:	41 11       	cpse	r20, r1
    5d9a:	61 c0       	rjmp	.+194    	; 0x5e5e <u8g_com_arduino_ssd_i2c_fn+0x110>
      {
        /* disable chip, send stop condition */
	u8g_i2c_stop();
    5d9c:	0e 94 f1 2f 	call	0x5fe2	; 0x5fe2 <u8g_i2c_stop>
      }
      */
#endif
      break;
  }
  return 1;
    5da0:	c1 e0       	ldi	r28, 0x01	; 1
    5da2:	60 c0       	rjmp	.+192    	; 0x5e64 <u8g_com_arduino_ssd_i2c_fn+0x116>
      }
      break;

    case U8G_COM_MSG_WRITE_BYTE:
      //u8g->pin_list[U8G_PI_SET_A0] = 1;
      if ( u8g_com_arduino_ssd_start_sequence(u8g) == 0 )
    5da4:	0e 94 87 2e 	call	0x5d0e	; 0x5d0e <u8g_com_arduino_ssd_start_sequence>
    5da8:	c8 2f       	mov	r28, r24
    5daa:	81 11       	cpse	r24, r1
    5dac:	03 c0       	rjmp	.+6      	; 0x5db4 <u8g_com_arduino_ssd_i2c_fn+0x66>
	return u8g_i2c_stop(), 0;
    5dae:	0e 94 f1 2f 	call	0x5fe2	; 0x5fe2 <u8g_i2c_stop>
    5db2:	58 c0       	rjmp	.+176    	; 0x5e64 <u8g_com_arduino_ssd_i2c_fn+0x116>
      if ( u8g_i2c_send_byte(arg_val) == 0 )
    5db4:	8e 2d       	mov	r24, r14
    5db6:	0e 94 ce 2f 	call	0x5f9c	; 0x5f9c <u8g_i2c_send_byte>
    5dba:	c8 2f       	mov	r28, r24
    5dbc:	81 11       	cpse	r24, r1
    5dbe:	51 c0       	rjmp	.+162    	; 0x5e62 <u8g_com_arduino_ssd_i2c_fn+0x114>
	return u8g_i2c_stop(), 0;
    5dc0:	0e 94 f1 2f 	call	0x5fe2	; 0x5fe2 <u8g_i2c_stop>
    5dc4:	4f c0       	rjmp	.+158    	; 0x5e64 <u8g_com_arduino_ssd_i2c_fn+0x116>
      // u8g_i2c_stop();
      break;
    
    case U8G_COM_MSG_WRITE_SEQ:
      //u8g->pin_list[U8G_PI_SET_A0] = 1;
      if ( u8g_com_arduino_ssd_start_sequence(u8g) == 0 )
    5dc6:	0e 94 87 2e 	call	0x5d0e	; 0x5d0e <u8g_com_arduino_ssd_start_sequence>
    5dca:	c8 2f       	mov	r28, r24
    5dcc:	88 23       	and	r24, r24
    5dce:	21 f0       	breq	.+8      	; 0x5dd8 <u8g_com_arduino_ssd_i2c_fn+0x8a>
	return u8g_i2c_stop(), 0;
      {
        register uint8_t *ptr = arg_ptr;
        while( arg_val > 0 )
    5dd0:	e1 10       	cpse	r14, r1
    5dd2:	05 c0       	rjmp	.+10     	; 0x5dde <u8g_com_arduino_ssd_i2c_fn+0x90>
      }
      */
#endif
      break;
  }
  return 1;
    5dd4:	c1 e0       	ldi	r28, 0x01	; 1
    5dd6:	46 c0       	rjmp	.+140    	; 0x5e64 <u8g_com_arduino_ssd_i2c_fn+0x116>
      break;
    
    case U8G_COM_MSG_WRITE_SEQ:
      //u8g->pin_list[U8G_PI_SET_A0] = 1;
      if ( u8g_com_arduino_ssd_start_sequence(u8g) == 0 )
	return u8g_i2c_stop(), 0;
    5dd8:	0e 94 f1 2f 	call	0x5fe2	; 0x5fe2 <u8g_i2c_stop>
    5ddc:	43 c0       	rjmp	.+134    	; 0x5e64 <u8g_com_arduino_ssd_i2c_fn+0x116>
    5dde:	68 01       	movw	r12, r16
    5de0:	ea 94       	dec	r14
    5de2:	8e 2d       	mov	r24, r14
    5de4:	90 e0       	ldi	r25, 0x00	; 0
    5de6:	01 96       	adiw	r24, 0x01	; 1
    5de8:	08 0f       	add	r16, r24
    5dea:	19 1f       	adc	r17, r25
      {
        register uint8_t *ptr = arg_ptr;
        while( arg_val > 0 )
        {
	  if ( u8g_i2c_send_byte(*ptr++) == 0 )
    5dec:	f6 01       	movw	r30, r12
    5dee:	81 91       	ld	r24, Z+
    5df0:	6f 01       	movw	r12, r30
    5df2:	0e 94 ce 2f 	call	0x5f9c	; 0x5f9c <u8g_i2c_send_byte>
    5df6:	c8 2f       	mov	r28, r24
    5df8:	81 11       	cpse	r24, r1
    5dfa:	03 c0       	rjmp	.+6      	; 0x5e02 <u8g_com_arduino_ssd_i2c_fn+0xb4>
	    return u8g_i2c_stop(), 0;
    5dfc:	0e 94 f1 2f 	call	0x5fe2	; 0x5fe2 <u8g_i2c_stop>
    5e00:	31 c0       	rjmp	.+98     	; 0x5e64 <u8g_com_arduino_ssd_i2c_fn+0x116>
      //u8g->pin_list[U8G_PI_SET_A0] = 1;
      if ( u8g_com_arduino_ssd_start_sequence(u8g) == 0 )
	return u8g_i2c_stop(), 0;
      {
        register uint8_t *ptr = arg_ptr;
        while( arg_val > 0 )
    5e02:	c0 16       	cp	r12, r16
    5e04:	d1 06       	cpc	r13, r17
    5e06:	91 f7       	brne	.-28     	; 0x5dec <u8g_com_arduino_ssd_i2c_fn+0x9e>
      }
      */
#endif
      break;
  }
  return 1;
    5e08:	c1 e0       	ldi	r28, 0x01	; 1
    5e0a:	2c c0       	rjmp	.+88     	; 0x5e64 <u8g_com_arduino_ssd_i2c_fn+0x116>
      // u8g_i2c_stop();
      break;

    case U8G_COM_MSG_WRITE_SEQ_P:
      //u8g->pin_list[U8G_PI_SET_A0] = 1;
      if ( u8g_com_arduino_ssd_start_sequence(u8g) == 0 )
    5e0c:	0e 94 87 2e 	call	0x5d0e	; 0x5d0e <u8g_com_arduino_ssd_start_sequence>
    5e10:	c8 2f       	mov	r28, r24
    5e12:	88 23       	and	r24, r24
    5e14:	21 f0       	breq	.+8      	; 0x5e1e <u8g_com_arduino_ssd_i2c_fn+0xd0>
	return u8g_i2c_stop(), 0;
      {
        register uint8_t *ptr = arg_ptr;
        while( arg_val > 0 )
    5e16:	e1 10       	cpse	r14, r1
    5e18:	05 c0       	rjmp	.+10     	; 0x5e24 <u8g_com_arduino_ssd_i2c_fn+0xd6>
      }
      */
#endif
      break;
  }
  return 1;
    5e1a:	c1 e0       	ldi	r28, 0x01	; 1
    5e1c:	23 c0       	rjmp	.+70     	; 0x5e64 <u8g_com_arduino_ssd_i2c_fn+0x116>
      break;

    case U8G_COM_MSG_WRITE_SEQ_P:
      //u8g->pin_list[U8G_PI_SET_A0] = 1;
      if ( u8g_com_arduino_ssd_start_sequence(u8g) == 0 )
	return u8g_i2c_stop(), 0;
    5e1e:	0e 94 f1 2f 	call	0x5fe2	; 0x5fe2 <u8g_i2c_stop>
    5e22:	20 c0       	rjmp	.+64     	; 0x5e64 <u8g_com_arduino_ssd_i2c_fn+0x116>
    5e24:	ea 94       	dec	r14
    5e26:	f1 2c       	mov	r15, r1
    5e28:	ff ef       	ldi	r31, 0xFF	; 255
    5e2a:	ef 1a       	sub	r14, r31
    5e2c:	ff 0a       	sbc	r15, r31
    5e2e:	e0 0e       	add	r14, r16
    5e30:	f1 1e       	adc	r15, r17
      {
        register uint8_t *ptr = arg_ptr;
        while( arg_val > 0 )
        {
	  if ( u8g_i2c_send_byte(u8g_pgm_read(ptr)) == 0 )
    5e32:	f8 01       	movw	r30, r16
    5e34:	84 91       	lpm	r24, Z
    5e36:	0e 94 ce 2f 	call	0x5f9c	; 0x5f9c <u8g_i2c_send_byte>
    5e3a:	c8 2f       	mov	r28, r24
    5e3c:	88 23       	and	r24, r24
    5e3e:	91 f0       	breq	.+36     	; 0x5e64 <u8g_com_arduino_ssd_i2c_fn+0x116>
	    return 0;
          ptr++;
    5e40:	0f 5f       	subi	r16, 0xFF	; 255
    5e42:	1f 4f       	sbci	r17, 0xFF	; 255
      //u8g->pin_list[U8G_PI_SET_A0] = 1;
      if ( u8g_com_arduino_ssd_start_sequence(u8g) == 0 )
	return u8g_i2c_stop(), 0;
      {
        register uint8_t *ptr = arg_ptr;
        while( arg_val > 0 )
    5e44:	0e 15       	cp	r16, r14
    5e46:	1f 05       	cpc	r17, r15
    5e48:	a1 f7       	brne	.-24     	; 0x5e32 <u8g_com_arduino_ssd_i2c_fn+0xe4>
      }
      */
#endif
      break;
  }
  return 1;
    5e4a:	c1 e0       	ldi	r28, 0x01	; 1
    5e4c:	0b c0       	rjmp	.+22     	; 0x5e64 <u8g_com_arduino_ssd_i2c_fn+0x116>
      }
      // u8g_i2c_stop();
      break;
      
    case U8G_COM_MSG_ADDRESS:                     /* define cmd (arg_val = 0) or data mode (arg_val = 1) */
      u8g->pin_list[U8G_PI_A0_STATE] = arg_val;
    5e4e:	fc 01       	movw	r30, r24
    5e50:	46 a3       	std	Z+38, r20	; 0x26
      u8g->pin_list[U8G_PI_SET_A0] = 1;		/* force a0 to set again */
    5e52:	21 e0       	ldi	r18, 0x01	; 1
    5e54:	23 a7       	std	Z+43, r18	; 0x2b
      }
      */
#endif
      break;
  }
  return 1;
    5e56:	c1 e0       	ldi	r28, 0x01	; 1
	if ( u8g_i2c_send_byte(I2C_DATA_MODE) == 0 )
	  return 0;
      }
      */
#endif
      break;
    5e58:	05 c0       	rjmp	.+10     	; 0x5e64 <u8g_com_arduino_ssd_i2c_fn+0x116>
  }
  return 1;
    5e5a:	c1 e0       	ldi	r28, 0x01	; 1
    5e5c:	03 c0       	rjmp	.+6      	; 0x5e64 <u8g_com_arduino_ssd_i2c_fn+0x116>
    5e5e:	c1 e0       	ldi	r28, 0x01	; 1
    5e60:	01 c0       	rjmp	.+2      	; 0x5e64 <u8g_com_arduino_ssd_i2c_fn+0x116>
    5e62:	c1 e0       	ldi	r28, 0x01	; 1
}
    5e64:	8c 2f       	mov	r24, r28
    5e66:	cf 91       	pop	r28
    5e68:	1f 91       	pop	r17
    5e6a:	0f 91       	pop	r16
    5e6c:	ff 90       	pop	r15
    5e6e:	ef 90       	pop	r14
    5e70:	df 90       	pop	r13
    5e72:	cf 90       	pop	r12
    5e74:	08 95       	ret

00005e76 <u8g_i2c_set_error>:
}

uint8_t u8g_i2c_get_err_pos(void)
{
  return u8g_i2c_err_pos;
}
    5e76:	90 91 4e 01 	lds	r25, 0x014E	; 0x80014e <u8g_i2c_err_code>
    5e7a:	91 11       	cpse	r25, r1
    5e7c:	04 c0       	rjmp	.+8      	; 0x5e86 <u8g_i2c_set_error+0x10>
    5e7e:	80 93 4e 01 	sts	0x014E, r24	; 0x80014e <u8g_i2c_err_code>
    5e82:	60 93 4c 01 	sts	0x014C, r22	; 0x80014c <__data_end>
    5e86:	08 95       	ret

00005e88 <u8g_i2c_clear_error>:
    5e88:	10 92 4e 01 	sts	0x014E, r1	; 0x80014e <u8g_i2c_err_code>
    5e8c:	10 92 4c 01 	sts	0x014C, r1	; 0x80014c <__data_end>
    5e90:	08 95       	ret

00005e92 <u8g_i2c_init>:
    TWSR = 0;
	--> 400KHz

    F_CPU/(2*100000)-8  --> calculate TWBR value for 100KHz
*/
  u8g_i2c_opt = options;
    5e92:	80 93 4d 01 	sts	0x014D, r24	; 0x80014d <u8g_i2c_opt>
  TWSR = 0;
    5e96:	10 92 b9 00 	sts	0x00B9, r1	; 0x8000b9 <__TEXT_REGION_LENGTH__+0x7e00b9>
  if ( options & U8G_I2C_OPT_FAST )
    5e9a:	84 ff       	sbrs	r24, 4
    5e9c:	04 c0       	rjmp	.+8      	; 0x5ea6 <u8g_i2c_init+0x14>
  {
    TWBR = F_CPU/(2*400000)-8;
    5e9e:	82 e0       	ldi	r24, 0x02	; 2
    5ea0:	80 93 b8 00 	sts	0x00B8, r24	; 0x8000b8 <__TEXT_REGION_LENGTH__+0x7e00b8>
    5ea4:	03 c0       	rjmp	.+6      	; 0x5eac <u8g_i2c_init+0x1a>
  }
  else
  {  
    TWBR = F_CPU/(2*100000)-8;
    5ea6:	80 e2       	ldi	r24, 0x20	; 32
    5ea8:	80 93 b8 00 	sts	0x00B8, r24	; 0x8000b8 <__TEXT_REGION_LENGTH__+0x7e00b8>
  }
  u8g_i2c_clear_error();
    5eac:	0e 94 44 2f 	call	0x5e88	; 0x5e88 <u8g_i2c_clear_error>
    5eb0:	08 95       	ret

00005eb2 <u8g_i2c_wait>:
}

uint8_t u8g_i2c_wait(uint8_t mask, uint8_t pos)
{
    5eb2:	1f 93       	push	r17
    5eb4:	cf 93       	push	r28
    5eb6:	df 93       	push	r29
    5eb8:	00 d0       	rcall	.+0      	; 0x5eba <u8g_i2c_wait+0x8>
    5eba:	cd b7       	in	r28, 0x3d	; 61
    5ebc:	de b7       	in	r29, 0x3e	; 62
  volatile uint16_t cnt = 2000;	/* timout value should be > 280 for 50KHz Bus and 16 Mhz CPU, however the start condition might need longer */
    5ebe:	20 ed       	ldi	r18, 0xD0	; 208
    5ec0:	37 e0       	ldi	r19, 0x07	; 7
    5ec2:	3a 83       	std	Y+2, r19	; 0x02
    5ec4:	29 83       	std	Y+1, r18	; 0x01
  while( !(TWCR & mask) )
    5ec6:	90 91 bc 00 	lds	r25, 0x00BC	; 0x8000bc <__TEXT_REGION_LENGTH__+0x7e00bc>
    5eca:	98 23       	and	r25, r24
    5ecc:	01 f5       	brne	.+64     	; 0x5f0e <u8g_i2c_wait+0x5c>
  {
      if ( cnt == 0 )
    5ece:	29 81       	ldd	r18, Y+1	; 0x01
    5ed0:	3a 81       	ldd	r19, Y+2	; 0x02
    5ed2:	23 2b       	or	r18, r19
    5ed4:	39 f0       	breq	.+14     	; 0x5ee4 <u8g_i2c_wait+0x32>
}

uint8_t u8g_i2c_wait(uint8_t mask, uint8_t pos)
{
  volatile uint16_t cnt = 2000;	/* timout value should be > 280 for 50KHz Bus and 16 Mhz CPU, however the start condition might need longer */
  while( !(TWCR & mask) )
    5ed6:	ec eb       	ldi	r30, 0xBC	; 188
    5ed8:	f0 e0       	ldi	r31, 0x00	; 0
    5eda:	0e c0       	rjmp	.+28     	; 0x5ef8 <u8g_i2c_wait+0x46>
  {
      if ( cnt == 0 )
    5edc:	29 81       	ldd	r18, Y+1	; 0x01
    5ede:	3a 81       	ldd	r19, Y+2	; 0x02
    5ee0:	23 2b       	or	r18, r19
    5ee2:	51 f4       	brne	.+20     	; 0x5ef8 <u8g_i2c_wait+0x46>
      {
	if ( u8g_i2c_opt & U8G_I2C_OPT_NO_ACK )
    5ee4:	80 91 4d 01 	lds	r24, 0x014D	; 0x80014d <u8g_i2c_opt>
    5ee8:	18 2f       	mov	r17, r24
    5eea:	12 70       	andi	r17, 0x02	; 2
    5eec:	81 fd       	sbrc	r24, 1
    5eee:	11 c0       	rjmp	.+34     	; 0x5f12 <u8g_i2c_wait+0x60>
	{
	  return 1;	/* all ok */
	}
	else
	{
	  u8g_i2c_set_error(U8G_I2C_ERR_TIMEOUT, pos);
    5ef0:	81 e0       	ldi	r24, 0x01	; 1
    5ef2:	0e 94 3b 2f 	call	0x5e76	; 0x5e76 <u8g_i2c_set_error>
	  return 0; /* error */
    5ef6:	0e c0       	rjmp	.+28     	; 0x5f14 <u8g_i2c_wait+0x62>
	}
      }
      cnt--;
    5ef8:	29 81       	ldd	r18, Y+1	; 0x01
    5efa:	3a 81       	ldd	r19, Y+2	; 0x02
    5efc:	21 50       	subi	r18, 0x01	; 1
    5efe:	31 09       	sbc	r19, r1
    5f00:	3a 83       	std	Y+2, r19	; 0x02
    5f02:	29 83       	std	Y+1, r18	; 0x01
}

uint8_t u8g_i2c_wait(uint8_t mask, uint8_t pos)
{
  volatile uint16_t cnt = 2000;	/* timout value should be > 280 for 50KHz Bus and 16 Mhz CPU, however the start condition might need longer */
  while( !(TWCR & mask) )
    5f04:	90 81       	ld	r25, Z
    5f06:	98 23       	and	r25, r24
    5f08:	49 f3       	breq	.-46     	; 0x5edc <u8g_i2c_wait+0x2a>
	  return 0; /* error */
	}
      }
      cnt--;
    }
  return 1;	/* all ok */
    5f0a:	11 e0       	ldi	r17, 0x01	; 1
    5f0c:	03 c0       	rjmp	.+6      	; 0x5f14 <u8g_i2c_wait+0x62>
    5f0e:	11 e0       	ldi	r17, 0x01	; 1
    5f10:	01 c0       	rjmp	.+2      	; 0x5f14 <u8g_i2c_wait+0x62>
  {
      if ( cnt == 0 )
      {
	if ( u8g_i2c_opt & U8G_I2C_OPT_NO_ACK )
	{
	  return 1;	/* all ok */
    5f12:	11 e0       	ldi	r17, 0x01	; 1
	}
      }
      cnt--;
    }
  return 1;	/* all ok */
}
    5f14:	81 2f       	mov	r24, r17
    5f16:	0f 90       	pop	r0
    5f18:	0f 90       	pop	r0
    5f1a:	df 91       	pop	r29
    5f1c:	cf 91       	pop	r28
    5f1e:	1f 91       	pop	r17
    5f20:	08 95       	ret

00005f22 <u8g_i2c_start>:

/* sla includes all 8 bits (with r/w bit), assums master transmit */
uint8_t u8g_i2c_start(uint8_t sla)
{
    5f22:	cf 93       	push	r28
    5f24:	df 93       	push	r29
    5f26:	d8 2f       	mov	r29, r24
  register uint8_t status;
  
  /* send start */
  TWCR = _BV(TWINT) |  _BV(TWSTA)  |  _BV(TWEN);
    5f28:	94 ea       	ldi	r25, 0xA4	; 164
    5f2a:	90 93 bc 00 	sts	0x00BC, r25	; 0x8000bc <__TEXT_REGION_LENGTH__+0x7e00bc>
   
  /* wait */
  if ( u8g_i2c_wait(_BV(TWINT), 1) == 0 )
    5f2e:	61 e0       	ldi	r22, 0x01	; 1
    5f30:	80 e8       	ldi	r24, 0x80	; 128
    5f32:	0e 94 59 2f 	call	0x5eb2	; 0x5eb2 <u8g_i2c_wait>
    5f36:	c8 2f       	mov	r28, r24
    5f38:	88 23       	and	r24, r24
    5f3a:	61 f1       	breq	.+88     	; 0x5f94 <u8g_i2c_start+0x72>
    return 0;
  
  status = TW_STATUS;
    5f3c:	90 91 b9 00 	lds	r25, 0x00B9	; 0x8000b9 <__TEXT_REGION_LENGTH__+0x7e00b9>
    5f40:	98 7f       	andi	r25, 0xF8	; 248
 
  /* check status after start */  
  if ( status != TW_START && status != TW_REP_START )
    5f42:	98 30       	cpi	r25, 0x08	; 8
    5f44:	41 f0       	breq	.+16     	; 0x5f56 <u8g_i2c_start+0x34>
    5f46:	90 31       	cpi	r25, 0x10	; 16
    5f48:	31 f0       	breq	.+12     	; 0x5f56 <u8g_i2c_start+0x34>
  {
    u8g_i2c_set_error(U8G_I2C_ERR_BUS, 1);
    5f4a:	61 e0       	ldi	r22, 0x01	; 1
    5f4c:	82 e0       	ldi	r24, 0x02	; 2
    5f4e:	0e 94 3b 2f 	call	0x5e76	; 0x5e76 <u8g_i2c_set_error>
    return 0;
    5f52:	c0 e0       	ldi	r28, 0x00	; 0
    5f54:	1f c0       	rjmp	.+62     	; 0x5f94 <u8g_i2c_start+0x72>
  }

  /* set slave address */  
  TWDR = sla;
    5f56:	d0 93 bb 00 	sts	0x00BB, r29	; 0x8000bb <__TEXT_REGION_LENGTH__+0x7e00bb>
  
  /* enable sla transfer */
  TWCR = _BV(TWINT)  |  _BV(TWEN);
    5f5a:	84 e8       	ldi	r24, 0x84	; 132
    5f5c:	80 93 bc 00 	sts	0x00BC, r24	; 0x8000bc <__TEXT_REGION_LENGTH__+0x7e00bc>

  /* wait */
  if ( u8g_i2c_wait(_BV(TWINT), 2) == 0 )
    5f60:	62 e0       	ldi	r22, 0x02	; 2
    5f62:	80 e8       	ldi	r24, 0x80	; 128
    5f64:	0e 94 59 2f 	call	0x5eb2	; 0x5eb2 <u8g_i2c_wait>
    5f68:	c8 2f       	mov	r28, r24
    5f6a:	88 23       	and	r24, r24
    5f6c:	99 f0       	breq	.+38     	; 0x5f94 <u8g_i2c_start+0x72>
    return 0;

  if ( u8g_i2c_opt & U8G_I2C_OPT_NO_ACK )
    5f6e:	80 91 4d 01 	lds	r24, 0x014D	; 0x80014d <u8g_i2c_opt>
    5f72:	c8 2f       	mov	r28, r24
    5f74:	c2 70       	andi	r28, 0x02	; 2
    5f76:	81 fd       	sbrc	r24, 1
    5f78:	0a c0       	rjmp	.+20     	; 0x5f8e <u8g_i2c_start+0x6c>
  {
    /* do not check for ACK */
  }
  else
  {
    status = TW_STATUS;
    5f7a:	80 91 b9 00 	lds	r24, 0x00B9	; 0x8000b9 <__TEXT_REGION_LENGTH__+0x7e00b9>
    5f7e:	88 7f       	andi	r24, 0xF8	; 248
    /* check status after sla */  
    if ( status != TW_MT_SLA_ACK )
    5f80:	88 31       	cpi	r24, 0x18	; 24
    5f82:	39 f0       	breq	.+14     	; 0x5f92 <u8g_i2c_start+0x70>
    {
      u8g_i2c_set_error(U8G_I2C_ERR_BUS, 2);
    5f84:	62 e0       	ldi	r22, 0x02	; 2
    5f86:	82 e0       	ldi	r24, 0x02	; 2
    5f88:	0e 94 3b 2f 	call	0x5e76	; 0x5e76 <u8g_i2c_set_error>
      return 0;
    5f8c:	03 c0       	rjmp	.+6      	; 0x5f94 <u8g_i2c_start+0x72>
    }
  }

   return 1;
    5f8e:	c1 e0       	ldi	r28, 0x01	; 1
    5f90:	01 c0       	rjmp	.+2      	; 0x5f94 <u8g_i2c_start+0x72>
    5f92:	c1 e0       	ldi	r28, 0x01	; 1
}
    5f94:	8c 2f       	mov	r24, r28
    5f96:	df 91       	pop	r29
    5f98:	cf 91       	pop	r28
    5f9a:	08 95       	ret

00005f9c <u8g_i2c_send_byte>:

uint8_t u8g_i2c_send_byte(uint8_t data)
{
    5f9c:	cf 93       	push	r28
  register uint8_t status;
  TWDR = data;
    5f9e:	80 93 bb 00 	sts	0x00BB, r24	; 0x8000bb <__TEXT_REGION_LENGTH__+0x7e00bb>
  TWCR = _BV(TWINT)  |  _BV(TWEN);
    5fa2:	84 e8       	ldi	r24, 0x84	; 132
    5fa4:	80 93 bc 00 	sts	0x00BC, r24	; 0x8000bc <__TEXT_REGION_LENGTH__+0x7e00bc>
  if ( u8g_i2c_wait(_BV(TWINT), 3) == 0 )
    5fa8:	63 e0       	ldi	r22, 0x03	; 3
    5faa:	80 e8       	ldi	r24, 0x80	; 128
    5fac:	0e 94 59 2f 	call	0x5eb2	; 0x5eb2 <u8g_i2c_wait>
    5fb0:	c8 2f       	mov	r28, r24
    5fb2:	88 23       	and	r24, r24
    5fb4:	99 f0       	breq	.+38     	; 0x5fdc <u8g_i2c_send_byte+0x40>
    return 0;
    
  if ( u8g_i2c_opt & U8G_I2C_OPT_NO_ACK )
    5fb6:	80 91 4d 01 	lds	r24, 0x014D	; 0x80014d <u8g_i2c_opt>
    5fba:	c8 2f       	mov	r28, r24
    5fbc:	c2 70       	andi	r28, 0x02	; 2
    5fbe:	81 fd       	sbrc	r24, 1
    5fc0:	0a c0       	rjmp	.+20     	; 0x5fd6 <u8g_i2c_send_byte+0x3a>
  {
    /* do not check for ACK */
  }
  else
  {
    status = TW_STATUS;  
    5fc2:	80 91 b9 00 	lds	r24, 0x00B9	; 0x8000b9 <__TEXT_REGION_LENGTH__+0x7e00b9>
    5fc6:	88 7f       	andi	r24, 0xF8	; 248
    if ( status != TW_MT_DATA_ACK )
    5fc8:	88 32       	cpi	r24, 0x28	; 40
    5fca:	39 f0       	breq	.+14     	; 0x5fda <u8g_i2c_send_byte+0x3e>
    {
      u8g_i2c_set_error(U8G_I2C_ERR_BUS, 3);
    5fcc:	63 e0       	ldi	r22, 0x03	; 3
    5fce:	82 e0       	ldi	r24, 0x02	; 2
    5fd0:	0e 94 3b 2f 	call	0x5e76	; 0x5e76 <u8g_i2c_set_error>
      return 0;
    5fd4:	03 c0       	rjmp	.+6      	; 0x5fdc <u8g_i2c_send_byte+0x40>
    }
  }

  return 1;  
    5fd6:	c1 e0       	ldi	r28, 0x01	; 1
    5fd8:	01 c0       	rjmp	.+2      	; 0x5fdc <u8g_i2c_send_byte+0x40>
    5fda:	c1 e0       	ldi	r28, 0x01	; 1
}
    5fdc:	8c 2f       	mov	r24, r28
    5fde:	cf 91       	pop	r28
    5fe0:	08 95       	ret

00005fe2 <u8g_i2c_stop>:

void u8g_i2c_stop(void)
{
  /* write stop */
  TWCR = _BV(TWINT) | _BV(TWEN) | _BV(TWSTO);
    5fe2:	84 e9       	ldi	r24, 0x94	; 148
    5fe4:	80 93 bc 00 	sts	0x00BC, r24	; 0x8000bc <__TEXT_REGION_LENGTH__+0x7e00bc>

  /* no error is checked for the stop condition */  
  u8g_i2c_wait(_BV(TWSTO), 4);
    5fe8:	64 e0       	ldi	r22, 0x04	; 4
    5fea:	80 e1       	ldi	r24, 0x10	; 16
    5fec:	0e 94 59 2f 	call	0x5eb2	; 0x5eb2 <u8g_i2c_wait>
    5ff0:	08 95       	ret

00005ff2 <u8g_Delay>:
  ==> must be devided by 4, rounded up 7/4 = 2
*/
void u8g_Delay(uint16_t val)
{
  /* old version did a call to the arduino lib: delay(val); */
  while( val != 0 )
    5ff2:	00 97       	sbiw	r24, 0x00	; 0
    5ff4:	39 f0       	breq	.+14     	; 0x6004 <u8g_Delay+0x12>
    milliseconds can be achieved.
 */
void
_delay_loop_2(uint16_t __count)
{
	__asm__ volatile (
    5ff6:	2e ec       	ldi	r18, 0xCE	; 206
    5ff8:	37 e0       	ldi	r19, 0x07	; 7
    5ffa:	f9 01       	movw	r30, r18
    5ffc:	31 97       	sbiw	r30, 0x01	; 1
    5ffe:	f1 f7       	brne	.-4      	; 0x5ffc <u8g_Delay+0xa>
  {
    _delay_loop_2( (F_CPU / 4000 ) -2);
    val--;
    6000:	01 97       	sbiw	r24, 0x01	; 1
  ==> must be devided by 4, rounded up 7/4 = 2
*/
void u8g_Delay(uint16_t val)
{
  /* old version did a call to the arduino lib: delay(val); */
  while( val != 0 )
    6002:	d9 f7       	brne	.-10     	; 0x5ffa <u8g_Delay+0x8>
    6004:	08 95       	ret

00006006 <u8g_dev_ssd1306_128x64_fn>:
  U8G_ESC_CS(0),             /* disable chip, bugfix 12 nov 2014 */
  U8G_ESC_END                /* end of sequence */
};

uint8_t u8g_dev_ssd1306_128x64_fn(u8g_t *u8g, u8g_dev_t *dev, uint8_t msg, void *arg)
{
    6006:	af 92       	push	r10
    6008:	bf 92       	push	r11
    600a:	cf 92       	push	r12
    600c:	df 92       	push	r13
    600e:	ef 92       	push	r14
    6010:	ff 92       	push	r15
    6012:	0f 93       	push	r16
    6014:	1f 93       	push	r17
    6016:	cf 93       	push	r28
    6018:	7c 01       	movw	r14, r24
    601a:	8b 01       	movw	r16, r22
    601c:	c4 2f       	mov	r28, r20
    601e:	69 01       	movw	r12, r18
  switch(msg)
    6020:	40 31       	cpi	r20, 0x10	; 16
    6022:	99 f1       	breq	.+102    	; 0x608a <u8g_dev_ssd1306_128x64_fn+0x84>
    6024:	18 f4       	brcc	.+6      	; 0x602c <u8g_dev_ssd1306_128x64_fn+0x26>
    6026:	4a 30       	cpi	r20, 0x0A	; 10
    6028:	31 f0       	breq	.+12     	; 0x6036 <u8g_dev_ssd1306_128x64_fn+0x30>
    602a:	3b c0       	rjmp	.+118    	; 0x60a2 <u8g_dev_ssd1306_128x64_fn+0x9c>
    602c:	41 31       	cpi	r20, 0x11	; 17
    602e:	99 f1       	breq	.+102    	; 0x6096 <u8g_dev_ssd1306_128x64_fn+0x90>
    6030:	45 31       	cpi	r20, 0x15	; 21
    6032:	59 f0       	breq	.+22     	; 0x604a <u8g_dev_ssd1306_128x64_fn+0x44>
    6034:	36 c0       	rjmp	.+108    	; 0x60a2 <u8g_dev_ssd1306_128x64_fn+0x9c>
  {
    case U8G_DEV_MSG_INIT:
      u8g_InitCom(u8g, dev, U8G_SPI_CLK_CYCLE_300NS);
    6036:	42 e0       	ldi	r20, 0x02	; 2
    6038:	0e 94 cb 2d 	call	0x5b96	; 0x5b96 <u8g_InitCom>
      u8g_WriteEscSeqP(u8g, dev, u8g_dev_ssd1306_128x64_adafruit2_init_seq);
    603c:	4c ee       	ldi	r20, 0xEC	; 236
    603e:	50 e0       	ldi	r21, 0x00	; 0
    6040:	b8 01       	movw	r22, r16
    6042:	c7 01       	movw	r24, r14
    6044:	0e 94 11 2e 	call	0x5c22	; 0x5c22 <u8g_WriteEscSeqP>
      break;
    6048:	2c c0       	rjmp	.+88     	; 0x60a2 <u8g_dev_ssd1306_128x64_fn+0x9c>
    case U8G_DEV_MSG_STOP:
      break;
    case U8G_DEV_MSG_PAGE_NEXT:
      {
        u8g_pb_t *pb = (u8g_pb_t *)(dev->dev_mem);
    604a:	fb 01       	movw	r30, r22
    604c:	a2 80       	ldd	r10, Z+2	; 0x02
    604e:	b3 80       	ldd	r11, Z+3	; 0x03
        u8g_WriteEscSeqP(u8g, dev, u8g_dev_ssd1306_128x64_data_start);    
    6050:	44 ee       	ldi	r20, 0xE4	; 228
    6052:	50 e0       	ldi	r21, 0x00	; 0
    6054:	0e 94 11 2e 	call	0x5c22	; 0x5c22 <u8g_WriteEscSeqP>
        u8g_WriteByte(u8g, dev, 0x0b0 | pb->p.page); /* select current page (SSD1306) */
    6058:	f5 01       	movw	r30, r10
    605a:	44 81       	ldd	r20, Z+4	; 0x04
    605c:	40 6b       	ori	r20, 0xB0	; 176
    605e:	b8 01       	movw	r22, r16
    6060:	c7 01       	movw	r24, r14
    6062:	0e 94 ff 2d 	call	0x5bfe	; 0x5bfe <u8g_WriteByte>
        u8g_SetAddress(u8g, dev, 1);           /* data mode */
    6066:	41 e0       	ldi	r20, 0x01	; 1
    6068:	b8 01       	movw	r22, r16
    606a:	c7 01       	movw	r24, r14
    606c:	0e 94 f5 2d 	call	0x5bea	; 0x5bea <u8g_SetAddress>
        if ( u8g_pb_WriteBuffer(pb, u8g, dev) == 0 )
    6070:	a8 01       	movw	r20, r16
    6072:	b7 01       	movw	r22, r14
    6074:	c5 01       	movw	r24, r10
    6076:	0e 94 1e 34 	call	0x683c	; 0x683c <u8g_pb_WriteBuffer>
    607a:	88 23       	and	r24, r24
    607c:	c1 f0       	breq	.+48     	; 0x60ae <u8g_dev_ssd1306_128x64_fn+0xa8>
          return 0;
        u8g_SetChipSelect(u8g, dev, 0);
    607e:	40 e0       	ldi	r20, 0x00	; 0
    6080:	b8 01       	movw	r22, r16
    6082:	c7 01       	movw	r24, r14
    6084:	0e 94 d5 2d 	call	0x5baa	; 0x5baa <u8g_SetChipSelect>
      }
      break;
    6088:	0c c0       	rjmp	.+24     	; 0x60a2 <u8g_dev_ssd1306_128x64_fn+0x9c>
    case U8G_DEV_MSG_SLEEP_ON:
      u8g_WriteEscSeqP(u8g, dev, u8g_dev_ssd13xx_sleep_on);    
    608a:	4b ed       	ldi	r20, 0xDB	; 219
    608c:	50 e0       	ldi	r21, 0x00	; 0
    608e:	0e 94 11 2e 	call	0x5c22	; 0x5c22 <u8g_WriteEscSeqP>
      return 1;
    6092:	81 e0       	ldi	r24, 0x01	; 1
    6094:	0c c0       	rjmp	.+24     	; 0x60ae <u8g_dev_ssd1306_128x64_fn+0xa8>
    case U8G_DEV_MSG_SLEEP_OFF:
      u8g_WriteEscSeqP(u8g, dev, u8g_dev_ssd13xx_sleep_off);    
    6096:	40 ed       	ldi	r20, 0xD0	; 208
    6098:	50 e0       	ldi	r21, 0x00	; 0
    609a:	0e 94 11 2e 	call	0x5c22	; 0x5c22 <u8g_WriteEscSeqP>
      return 1;
    609e:	81 e0       	ldi	r24, 0x01	; 1
    60a0:	06 c0       	rjmp	.+12     	; 0x60ae <u8g_dev_ssd1306_128x64_fn+0xa8>
  }
  return u8g_dev_pb8v1_base_fn(u8g, dev, msg, arg);
    60a2:	96 01       	movw	r18, r12
    60a4:	4c 2f       	mov	r20, r28
    60a6:	b8 01       	movw	r22, r16
    60a8:	c7 01       	movw	r24, r14
    60aa:	0e 94 92 34 	call	0x6924	; 0x6924 <u8g_dev_pb8v1_base_fn>
}
    60ae:	cf 91       	pop	r28
    60b0:	1f 91       	pop	r17
    60b2:	0f 91       	pop	r16
    60b4:	ff 90       	pop	r15
    60b6:	ef 90       	pop	r14
    60b8:	df 90       	pop	r13
    60ba:	cf 90       	pop	r12
    60bc:	bf 90       	pop	r11
    60be:	af 90       	pop	r10
    60c0:	08 95       	ret

000060c2 <u8g_font_get_word>:
  cap_a = u8g_font_GetCapitalAHeight(u8g->font);
  u8g_font_calc_str_min_box(u8g, s, &buf);
  if ( buf.y_max < cap_a )
    buf.y_max = cap_a;
  u8g_font_get_str_box_fill_args(u8g, s, &buf, x, y, width, height);
}
    60c2:	fc 01       	movw	r30, r24
    60c4:	e6 0f       	add	r30, r22
    60c6:	f1 1d       	adc	r31, r1
    60c8:	84 91       	lpm	r24, Z
    60ca:	90 e0       	ldi	r25, 0x00	; 0
    60cc:	98 2f       	mov	r25, r24
    60ce:	88 27       	eor	r24, r24
    60d0:	31 96       	adiw	r30, 0x01	; 1
    60d2:	e4 91       	lpm	r30, Z
    60d4:	8e 0f       	add	r24, r30
    60d6:	91 1d       	adc	r25, r1
    60d8:	08 95       	ret

000060da <u8g_font_GetFormat>:
    60da:	fc 01       	movw	r30, r24
    60dc:	84 91       	lpm	r24, Z
    60de:	08 95       	ret

000060e0 <u8g_font_GetFontGlyphStructureSize>:
    60e0:	0e 94 6d 30 	call	0x60da	; 0x60da <u8g_font_GetFormat>
    60e4:	88 23       	and	r24, r24
    60e6:	21 f0       	breq	.+8      	; 0x60f0 <u8g_font_GetFontGlyphStructureSize+0x10>
    60e8:	82 30       	cpi	r24, 0x02	; 2
    60ea:	11 f0       	breq	.+4      	; 0x60f0 <u8g_font_GetFontGlyphStructureSize+0x10>
    60ec:	83 e0       	ldi	r24, 0x03	; 3
    60ee:	08 95       	ret
    60f0:	86 e0       	ldi	r24, 0x06	; 6
    60f2:	08 95       	ret

000060f4 <u8g_font_calc_vref_font>:
    60f4:	80 e0       	ldi	r24, 0x00	; 0
    60f6:	08 95       	ret

000060f8 <u8g_font_GetEncoding65Pos>:
    60f8:	66 e0       	ldi	r22, 0x06	; 6
    60fa:	0e 94 61 30 	call	0x60c2	; 0x60c2 <u8g_font_get_word>
    60fe:	08 95       	ret

00006100 <u8g_font_GetEncoding97Pos>:
    6100:	68 e0       	ldi	r22, 0x08	; 8
    6102:	0e 94 61 30 	call	0x60c2	; 0x60c2 <u8g_font_get_word>
    6106:	08 95       	ret

00006108 <u8g_font_GetFontStartEncoding>:
    6108:	0a 96       	adiw	r24, 0x0a	; 10
    610a:	fc 01       	movw	r30, r24
    610c:	84 91       	lpm	r24, Z
    610e:	08 95       	ret

00006110 <u8g_font_GetFontEndEncoding>:
    6110:	0b 96       	adiw	r24, 0x0b	; 11
    6112:	fc 01       	movw	r30, r24
    6114:	84 91       	lpm	r24, Z
    6116:	08 95       	ret

00006118 <u8g_GetGlyph>:
    6118:	af 92       	push	r10
    611a:	bf 92       	push	r11
    611c:	cf 92       	push	r12
    611e:	df 92       	push	r13
    6120:	ef 92       	push	r14
    6122:	ff 92       	push	r15
    6124:	0f 93       	push	r16
    6126:	1f 93       	push	r17
    6128:	cf 93       	push	r28
    612a:	df 93       	push	r29
    612c:	7c 01       	movw	r14, r24
    612e:	b6 2e       	mov	r11, r22
    6130:	dc 01       	movw	r26, r24
    6132:	14 96       	adiw	r26, 0x04	; 4
    6134:	cd 91       	ld	r28, X+
    6136:	dc 91       	ld	r29, X
    6138:	15 97       	sbiw	r26, 0x05	; 5
    613a:	ce 01       	movw	r24, r28
    613c:	0e 94 6d 30 	call	0x60da	; 0x60da <u8g_font_GetFormat>
    6140:	18 2f       	mov	r17, r24
    6142:	f7 01       	movw	r30, r14
    6144:	84 81       	ldd	r24, Z+4	; 0x04
    6146:	95 81       	ldd	r25, Z+5	; 0x05
    6148:	0e 94 70 30 	call	0x60e0	; 0x60e0 <u8g_font_GetFontGlyphStructureSize>
    614c:	d8 2e       	mov	r13, r24
    614e:	11 30       	cpi	r17, 0x01	; 1
    6150:	29 f4       	brne	.+10     	; 0x615c <u8g_GetGlyph+0x44>
    6152:	0f 2e       	mov	r0, r31
    6154:	ff e0       	ldi	r31, 0x0F	; 15
    6156:	af 2e       	mov	r10, r31
    6158:	f0 2d       	mov	r31, r0
    615a:	02 c0       	rjmp	.+4      	; 0x6160 <u8g_GetGlyph+0x48>
    615c:	aa 24       	eor	r10, r10
    615e:	aa 94       	dec	r10
    6160:	d7 01       	movw	r26, r14
    6162:	14 96       	adiw	r26, 0x04	; 4
    6164:	8d 91       	ld	r24, X+
    6166:	9c 91       	ld	r25, X
    6168:	15 97       	sbiw	r26, 0x05	; 5
    616a:	0e 94 84 30 	call	0x6108	; 0x6108 <u8g_font_GetFontStartEncoding>
    616e:	18 2f       	mov	r17, r24
    6170:	f7 01       	movw	r30, r14
    6172:	84 81       	ldd	r24, Z+4	; 0x04
    6174:	95 81       	ldd	r25, Z+5	; 0x05
    6176:	0e 94 88 30 	call	0x6110	; 0x6110 <u8g_font_GetFontEndEncoding>
    617a:	08 2f       	mov	r16, r24
    617c:	d7 01       	movw	r26, r14
    617e:	14 96       	adiw	r26, 0x04	; 4
    6180:	8d 91       	ld	r24, X+
    6182:	9c 91       	ld	r25, X
    6184:	15 97       	sbiw	r26, 0x05	; 5
    6186:	0e 94 80 30 	call	0x6100	; 0x6100 <u8g_font_GetEncoding97Pos>
    618a:	b0 e6       	ldi	r27, 0x60	; 96
    618c:	bb 15       	cp	r27, r11
    618e:	30 f4       	brcc	.+12     	; 0x619c <u8g_GetGlyph+0x84>
    6190:	00 97       	sbiw	r24, 0x00	; 0
    6192:	21 f0       	breq	.+8      	; 0x619c <u8g_GetGlyph+0x84>
    6194:	c8 0f       	add	r28, r24
    6196:	d9 1f       	adc	r29, r25
    6198:	11 e6       	ldi	r17, 0x61	; 97
    619a:	0f c0       	rjmp	.+30     	; 0x61ba <u8g_GetGlyph+0xa2>
    619c:	f7 01       	movw	r30, r14
    619e:	84 81       	ldd	r24, Z+4	; 0x04
    61a0:	95 81       	ldd	r25, Z+5	; 0x05
    61a2:	0e 94 7c 30 	call	0x60f8	; 0x60f8 <u8g_font_GetEncoding65Pos>
    61a6:	f0 e4       	ldi	r31, 0x40	; 64
    61a8:	fb 15       	cp	r31, r11
    61aa:	30 f4       	brcc	.+12     	; 0x61b8 <u8g_GetGlyph+0xa0>
    61ac:	00 97       	sbiw	r24, 0x00	; 0
    61ae:	21 f0       	breq	.+8      	; 0x61b8 <u8g_GetGlyph+0xa0>
    61b0:	c8 0f       	add	r28, r24
    61b2:	d9 1f       	adc	r29, r25
    61b4:	11 e4       	ldi	r17, 0x41	; 65
    61b6:	01 c0       	rjmp	.+2      	; 0x61ba <u8g_GetGlyph+0xa2>
    61b8:	61 96       	adiw	r28, 0x11	; 17
    61ba:	0b 15       	cp	r16, r11
    61bc:	90 f4       	brcc	.+36     	; 0x61e2 <u8g_GetGlyph+0xca>
    61be:	d7 01       	movw	r26, r14
    61c0:	50 96       	adiw	r26, 0x10	; 16
    61c2:	1c 92       	st	X, r1
    61c4:	50 97       	sbiw	r26, 0x10	; 16
    61c6:	53 96       	adiw	r26, 0x13	; 19
    61c8:	1c 92       	st	X, r1
    61ca:	53 97       	sbiw	r26, 0x13	; 19
    61cc:	54 96       	adiw	r26, 0x14	; 20
    61ce:	1c 92       	st	X, r1
    61d0:	54 97       	sbiw	r26, 0x14	; 20
    61d2:	51 96       	adiw	r26, 0x11	; 17
    61d4:	1c 92       	st	X, r1
    61d6:	51 97       	sbiw	r26, 0x11	; 17
    61d8:	52 96       	adiw	r26, 0x12	; 18
    61da:	1c 92       	st	X, r1
    61dc:	80 e0       	ldi	r24, 0x00	; 0
    61de:	90 e0       	ldi	r25, 0x00	; 0
    61e0:	75 c0       	rjmp	.+234    	; 0x62cc <u8g_GetGlyph+0x1b4>
    61e2:	01 17       	cp	r16, r17
    61e4:	08 f4       	brcc	.+2      	; 0x61e8 <u8g_GetGlyph+0xd0>
    61e6:	6a c0       	rjmp	.+212    	; 0x62bc <u8g_GetGlyph+0x1a4>
    61e8:	2d 2d       	mov	r18, r13
    61ea:	30 e0       	ldi	r19, 0x00	; 0
    61ec:	6e 01       	movw	r12, r28
    61ee:	fe 01       	movw	r30, r28
    61f0:	94 91       	lpm	r25, Z
    61f2:	9f 3f       	cpi	r25, 0xFF	; 255
    61f4:	11 f4       	brne	.+4      	; 0x61fa <u8g_GetGlyph+0xe2>
    61f6:	21 96       	adiw	r28, 0x01	; 1
    61f8:	5d c0       	rjmp	.+186    	; 0x62b4 <u8g_GetGlyph+0x19c>
    61fa:	1b 11       	cpse	r17, r11
    61fc:	52 c0       	rjmp	.+164    	; 0x62a2 <u8g_GetGlyph+0x18a>
    61fe:	8e 01       	movw	r16, r28
    6200:	d7 01       	movw	r26, r14
    6202:	14 96       	adiw	r26, 0x04	; 4
    6204:	8d 91       	ld	r24, X+
    6206:	9c 91       	ld	r25, X
    6208:	15 97       	sbiw	r26, 0x05	; 5
    620a:	0e 94 6d 30 	call	0x60da	; 0x60da <u8g_font_GetFormat>
    620e:	88 23       	and	r24, r24
    6210:	11 f0       	breq	.+4      	; 0x6216 <u8g_GetGlyph+0xfe>
    6212:	82 30       	cpi	r24, 0x02	; 2
    6214:	f1 f4       	brne	.+60     	; 0x6252 <u8g_GetGlyph+0x13a>
    6216:	f6 01       	movw	r30, r12
    6218:	c4 90       	lpm	r12, Z
    621a:	d7 01       	movw	r26, r14
    621c:	53 96       	adiw	r26, 0x13	; 19
    621e:	cc 92       	st	X, r12
    6220:	53 97       	sbiw	r26, 0x13	; 19
    6222:	f8 01       	movw	r30, r16
    6224:	31 96       	adiw	r30, 0x01	; 1
    6226:	e4 91       	lpm	r30, Z
    6228:	54 96       	adiw	r26, 0x14	; 20
    622a:	ec 93       	st	X, r30
    622c:	54 97       	sbiw	r26, 0x14	; 20
    622e:	f8 01       	movw	r30, r16
    6230:	33 96       	adiw	r30, 0x03	; 3
    6232:	e4 91       	lpm	r30, Z
    6234:	50 96       	adiw	r26, 0x10	; 16
    6236:	ec 93       	st	X, r30
    6238:	50 97       	sbiw	r26, 0x10	; 16
    623a:	f8 01       	movw	r30, r16
    623c:	34 96       	adiw	r30, 0x04	; 4
    623e:	e4 91       	lpm	r30, Z
    6240:	51 96       	adiw	r26, 0x11	; 17
    6242:	ec 93       	st	X, r30
    6244:	51 97       	sbiw	r26, 0x11	; 17
    6246:	f8 01       	movw	r30, r16
    6248:	35 96       	adiw	r30, 0x05	; 5
    624a:	e4 91       	lpm	r30, Z
    624c:	52 96       	adiw	r26, 0x12	; 18
    624e:	ec 93       	st	X, r30
    6250:	25 c0       	rjmp	.+74     	; 0x629c <u8g_GetGlyph+0x184>
    6252:	fe 01       	movw	r30, r28
    6254:	84 91       	lpm	r24, Z
    6256:	98 2f       	mov	r25, r24
    6258:	9f 70       	andi	r25, 0x0F	; 15
    625a:	92 50       	subi	r25, 0x02	; 2
    625c:	d7 01       	movw	r26, r14
    625e:	52 96       	adiw	r26, 0x12	; 18
    6260:	9c 93       	st	X, r25
    6262:	52 97       	sbiw	r26, 0x12	; 18
    6264:	c8 2e       	mov	r12, r24
    6266:	c6 94       	lsr	r12
    6268:	c6 94       	lsr	r12
    626a:	c6 94       	lsr	r12
    626c:	c6 94       	lsr	r12
    626e:	51 96       	adiw	r26, 0x11	; 17
    6270:	cc 92       	st	X, r12
    6272:	51 97       	sbiw	r26, 0x11	; 17
    6274:	fe 01       	movw	r30, r28
    6276:	31 96       	adiw	r30, 0x01	; 1
    6278:	e4 91       	lpm	r30, Z
    627a:	8e 2f       	mov	r24, r30
    627c:	8f 70       	andi	r24, 0x0F	; 15
    627e:	54 96       	adiw	r26, 0x14	; 20
    6280:	8c 93       	st	X, r24
    6282:	54 97       	sbiw	r26, 0x14	; 20
    6284:	e2 95       	swap	r30
    6286:	ef 70       	andi	r30, 0x0F	; 15
    6288:	53 96       	adiw	r26, 0x13	; 19
    628a:	ec 93       	st	X, r30
    628c:	53 97       	sbiw	r26, 0x13	; 19
    628e:	fe 01       	movw	r30, r28
    6290:	32 96       	adiw	r30, 0x02	; 2
    6292:	e4 91       	lpm	r30, Z
    6294:	e2 95       	swap	r30
    6296:	ef 70       	andi	r30, 0x0F	; 15
    6298:	50 96       	adiw	r26, 0x10	; 16
    629a:	ec 93       	st	X, r30
    629c:	8c 2f       	mov	r24, r28
    629e:	9d 2f       	mov	r25, r29
    62a0:	15 c0       	rjmp	.+42     	; 0x62cc <u8g_GetGlyph+0x1b4>
    62a2:	fe 01       	movw	r30, r28
    62a4:	32 96       	adiw	r30, 0x02	; 2
    62a6:	e4 91       	lpm	r30, Z
    62a8:	ea 21       	and	r30, r10
    62aa:	c9 01       	movw	r24, r18
    62ac:	8e 0f       	add	r24, r30
    62ae:	91 1d       	adc	r25, r1
    62b0:	c8 0f       	add	r28, r24
    62b2:	d9 1f       	adc	r29, r25
    62b4:	10 17       	cp	r17, r16
    62b6:	11 f0       	breq	.+4      	; 0x62bc <u8g_GetGlyph+0x1a4>
    62b8:	1f 5f       	subi	r17, 0xFF	; 255
    62ba:	98 cf       	rjmp	.-208    	; 0x61ec <u8g_GetGlyph+0xd4>
    62bc:	f7 01       	movw	r30, r14
    62be:	10 8a       	std	Z+16, r1	; 0x10
    62c0:	13 8a       	std	Z+19, r1	; 0x13
    62c2:	14 8a       	std	Z+20, r1	; 0x14
    62c4:	11 8a       	std	Z+17, r1	; 0x11
    62c6:	12 8a       	std	Z+18, r1	; 0x12
    62c8:	80 e0       	ldi	r24, 0x00	; 0
    62ca:	90 e0       	ldi	r25, 0x00	; 0
    62cc:	df 91       	pop	r29
    62ce:	cf 91       	pop	r28
    62d0:	1f 91       	pop	r17
    62d2:	0f 91       	pop	r16
    62d4:	ff 90       	pop	r15
    62d6:	ef 90       	pop	r14
    62d8:	df 90       	pop	r13
    62da:	cf 90       	pop	r12
    62dc:	bf 90       	pop	r11
    62de:	af 90       	pop	r10
    62e0:	08 95       	ret

000062e2 <u8g_draw_glyph>:
    62e2:	6f 92       	push	r6
    62e4:	7f 92       	push	r7
    62e6:	8f 92       	push	r8
    62e8:	9f 92       	push	r9
    62ea:	af 92       	push	r10
    62ec:	bf 92       	push	r11
    62ee:	cf 92       	push	r12
    62f0:	df 92       	push	r13
    62f2:	ef 92       	push	r14
    62f4:	ff 92       	push	r15
    62f6:	0f 93       	push	r16
    62f8:	1f 93       	push	r17
    62fa:	cf 93       	push	r28
    62fc:	df 93       	push	r29
    62fe:	5c 01       	movw	r10, r24
    6300:	16 2f       	mov	r17, r22
    6302:	64 2e       	mov	r6, r20
    6304:	62 2f       	mov	r22, r18
    6306:	0e 94 8c 30 	call	0x6118	; 0x6118 <u8g_GetGlyph>
    630a:	6c 01       	movw	r12, r24
    630c:	89 2b       	or	r24, r25
    630e:	09 f4       	brne	.+2      	; 0x6312 <u8g_draw_glyph+0x30>
    6310:	48 c0       	rjmp	.+144    	; 0x63a2 <u8g_draw_glyph+0xc0>
    6312:	f5 01       	movw	r30, r10
    6314:	84 81       	ldd	r24, Z+4	; 0x04
    6316:	95 81       	ldd	r25, Z+5	; 0x05
    6318:	0e 94 70 30 	call	0x60e0	; 0x60e0 <u8g_font_GetFontGlyphStructureSize>
    631c:	98 2e       	mov	r9, r24
    631e:	f5 01       	movw	r30, r10
    6320:	d3 89       	ldd	r29, Z+19	; 0x13
    6322:	c4 89       	ldd	r28, Z+20	; 0x14
    6324:	71 88       	ldd	r7, Z+17	; 0x11
    6326:	71 0e       	add	r7, r17
    6328:	92 89       	ldd	r25, Z+18	; 0x12
    632a:	69 1a       	sub	r6, r25
    632c:	f6 2c       	mov	r15, r6
    632e:	fc 1a       	sub	r15, r28
    6330:	0c 2f       	mov	r16, r28
    6332:	2d 2f       	mov	r18, r29
    6334:	4f 2d       	mov	r20, r15
    6336:	67 2d       	mov	r22, r7
    6338:	c5 01       	movw	r24, r10
    633a:	0e 94 99 2d 	call	0x5b32	; 0x5b32 <u8g_IsBBXIntersection>
    633e:	81 11       	cpse	r24, r1
    6340:	03 c0       	rjmp	.+6      	; 0x6348 <u8g_draw_glyph+0x66>
    6342:	f5 01       	movw	r30, r10
    6344:	80 89       	ldd	r24, Z+16	; 0x10
    6346:	2e c0       	rjmp	.+92     	; 0x63a4 <u8g_draw_glyph+0xc2>
    6348:	d9 5f       	subi	r29, 0xF9	; 249
    634a:	ed 2e       	mov	r14, r29
    634c:	e6 94       	lsr	r14
    634e:	e6 94       	lsr	r14
    6350:	e6 94       	lsr	r14
    6352:	cc 23       	and	r28, r28
    6354:	19 f1       	breq	.+70     	; 0x639c <u8g_draw_glyph+0xba>
    6356:	e6 01       	movw	r28, r12
    6358:	c9 0d       	add	r28, r9
    635a:	d1 1d       	adc	r29, r1
    635c:	88 24       	eor	r8, r8
    635e:	8a 94       	dec	r8
    6360:	8e 0c       	add	r8, r14
    6362:	91 2c       	mov	r9, r1
    6364:	ff ef       	ldi	r31, 0xFF	; 255
    6366:	8f 1a       	sub	r8, r31
    6368:	9f 0a       	sbc	r9, r31
    636a:	11 c0       	rjmp	.+34     	; 0x638e <u8g_draw_glyph+0xac>
    636c:	fe 01       	movw	r30, r28
    636e:	04 91       	lpm	r16, Z
    6370:	20 e0       	ldi	r18, 0x00	; 0
    6372:	4f 2d       	mov	r20, r15
    6374:	61 2f       	mov	r22, r17
    6376:	c5 01       	movw	r24, r10
    6378:	0e 94 a6 33 	call	0x674c	; 0x674c <u8g_Draw8Pixel>
    637c:	21 96       	adiw	r28, 0x01	; 1
    637e:	18 5f       	subi	r17, 0xF8	; 248
    6380:	cc 15       	cp	r28, r12
    6382:	dd 05       	cpc	r29, r13
    6384:	99 f7       	brne	.-26     	; 0x636c <u8g_draw_glyph+0x8a>
    6386:	e6 01       	movw	r28, r12
    6388:	f3 94       	inc	r15
    638a:	f6 14       	cp	r15, r6
    638c:	39 f0       	breq	.+14     	; 0x639c <u8g_draw_glyph+0xba>
    638e:	ee 20       	and	r14, r14
    6390:	d9 f3       	breq	.-10     	; 0x6388 <u8g_draw_glyph+0xa6>
    6392:	6e 01       	movw	r12, r28
    6394:	c8 0c       	add	r12, r8
    6396:	d9 1c       	adc	r13, r9
    6398:	17 2d       	mov	r17, r7
    639a:	e8 cf       	rjmp	.-48     	; 0x636c <u8g_draw_glyph+0x8a>
    639c:	f5 01       	movw	r30, r10
    639e:	80 89       	ldd	r24, Z+16	; 0x10
    63a0:	01 c0       	rjmp	.+2      	; 0x63a4 <u8g_draw_glyph+0xc2>
    63a2:	80 e0       	ldi	r24, 0x00	; 0
    63a4:	df 91       	pop	r29
    63a6:	cf 91       	pop	r28
    63a8:	1f 91       	pop	r17
    63aa:	0f 91       	pop	r16
    63ac:	ff 90       	pop	r15
    63ae:	ef 90       	pop	r14
    63b0:	df 90       	pop	r13
    63b2:	cf 90       	pop	r12
    63b4:	bf 90       	pop	r11
    63b6:	af 90       	pop	r10
    63b8:	9f 90       	pop	r9
    63ba:	8f 90       	pop	r8
    63bc:	7f 90       	pop	r7
    63be:	6f 90       	pop	r6
    63c0:	08 95       	ret

000063c2 <u8g_DrawStr>:
    63c2:	cf 92       	push	r12
    63c4:	df 92       	push	r13
    63c6:	ff 92       	push	r15
    63c8:	0f 93       	push	r16
    63ca:	1f 93       	push	r17
    63cc:	cf 93       	push	r28
    63ce:	df 93       	push	r29
    63d0:	6c 01       	movw	r12, r24
    63d2:	c6 2f       	mov	r28, r22
    63d4:	f4 2e       	mov	r15, r20
    63d6:	89 01       	movw	r16, r18
    63d8:	dc 01       	movw	r26, r24
    63da:	55 96       	adiw	r26, 0x15	; 21
    63dc:	ed 91       	ld	r30, X+
    63de:	fc 91       	ld	r31, X
    63e0:	56 97       	sbiw	r26, 0x16	; 22
    63e2:	09 95       	icall
    63e4:	f8 0e       	add	r15, r24
    63e6:	f8 01       	movw	r30, r16
    63e8:	20 81       	ld	r18, Z
    63ea:	22 23       	and	r18, r18
    63ec:	81 f0       	breq	.+32     	; 0x640e <u8g_DrawStr+0x4c>
    63ee:	0f 5f       	subi	r16, 0xFF	; 255
    63f0:	1f 4f       	sbci	r17, 0xFF	; 255
    63f2:	d0 e0       	ldi	r29, 0x00	; 0
    63f4:	4f 2d       	mov	r20, r15
    63f6:	6c 2f       	mov	r22, r28
    63f8:	c6 01       	movw	r24, r12
    63fa:	0e 94 71 31 	call	0x62e2	; 0x62e2 <u8g_draw_glyph>
    63fe:	c8 0f       	add	r28, r24
    6400:	d8 0f       	add	r29, r24
    6402:	d8 01       	movw	r26, r16
    6404:	2d 91       	ld	r18, X+
    6406:	8d 01       	movw	r16, r26
    6408:	21 11       	cpse	r18, r1
    640a:	f4 cf       	rjmp	.-24     	; 0x63f4 <u8g_DrawStr+0x32>
    640c:	01 c0       	rjmp	.+2      	; 0x6410 <u8g_DrawStr+0x4e>
    640e:	d0 e0       	ldi	r29, 0x00	; 0
    6410:	8d 2f       	mov	r24, r29
    6412:	df 91       	pop	r29
    6414:	cf 91       	pop	r28
    6416:	1f 91       	pop	r17
    6418:	0f 91       	pop	r16
    641a:	ff 90       	pop	r15
    641c:	df 90       	pop	r13
    641e:	cf 90       	pop	r12
    6420:	08 95       	ret

00006422 <u8g_UpdateRefHeight>:
    6422:	dc 01       	movw	r26, r24
    6424:	14 96       	adiw	r26, 0x04	; 4
    6426:	8d 91       	ld	r24, X+
    6428:	9c 91       	ld	r25, X
    642a:	15 97       	sbiw	r26, 0x05	; 5
    642c:	00 97       	sbiw	r24, 0x00	; 0
    642e:	09 f4       	brne	.+2      	; 0x6432 <u8g_UpdateRefHeight+0x10>
    6430:	4d c0       	rjmp	.+154    	; 0x64cc <u8g_UpdateRefHeight+0xaa>
    6432:	57 96       	adiw	r26, 0x17	; 23
    6434:	2c 91       	ld	r18, X
    6436:	57 97       	sbiw	r26, 0x17	; 23
    6438:	21 11       	cpse	r18, r1
    643a:	0d c0       	rjmp	.+26     	; 0x6456 <u8g_UpdateRefHeight+0x34>
    643c:	fc 01       	movw	r30, r24
    643e:	35 96       	adiw	r30, 0x05	; 5
    6440:	e4 91       	lpm	r30, Z
    6442:	58 96       	adiw	r26, 0x18	; 24
    6444:	ec 93       	st	X, r30
    6446:	58 97       	sbiw	r26, 0x18	; 24
    6448:	fc 01       	movw	r30, r24
    644a:	3c 96       	adiw	r30, 0x0c	; 12
    644c:	e4 91       	lpm	r30, Z
    644e:	59 96       	adiw	r26, 0x19	; 25
    6450:	ec 93       	st	X, r30
    6452:	59 97       	sbiw	r26, 0x19	; 25
    6454:	1b c0       	rjmp	.+54     	; 0x648c <u8g_UpdateRefHeight+0x6a>
    6456:	21 30       	cpi	r18, 0x01	; 1
    6458:	69 f4       	brne	.+26     	; 0x6474 <u8g_UpdateRefHeight+0x52>
    645a:	fc 01       	movw	r30, r24
    645c:	3f 96       	adiw	r30, 0x0f	; 15
    645e:	e4 91       	lpm	r30, Z
    6460:	58 96       	adiw	r26, 0x18	; 24
    6462:	ec 93       	st	X, r30
    6464:	58 97       	sbiw	r26, 0x18	; 24
    6466:	fc 01       	movw	r30, r24
    6468:	70 96       	adiw	r30, 0x10	; 16
    646a:	e4 91       	lpm	r30, Z
    646c:	59 96       	adiw	r26, 0x19	; 25
    646e:	ec 93       	st	X, r30
    6470:	59 97       	sbiw	r26, 0x19	; 25
    6472:	0c c0       	rjmp	.+24     	; 0x648c <u8g_UpdateRefHeight+0x6a>
    6474:	fc 01       	movw	r30, r24
    6476:	3d 96       	adiw	r30, 0x0d	; 13
    6478:	e4 91       	lpm	r30, Z
    647a:	58 96       	adiw	r26, 0x18	; 24
    647c:	ec 93       	st	X, r30
    647e:	58 97       	sbiw	r26, 0x18	; 24
    6480:	fc 01       	movw	r30, r24
    6482:	3e 96       	adiw	r30, 0x0e	; 14
    6484:	e4 91       	lpm	r30, Z
    6486:	59 96       	adiw	r26, 0x19	; 25
    6488:	ec 93       	st	X, r30
    648a:	59 97       	sbiw	r26, 0x19	; 25
    648c:	58 96       	adiw	r26, 0x18	; 24
    648e:	8c 91       	ld	r24, X
    6490:	58 97       	sbiw	r26, 0x18	; 24
    6492:	08 2e       	mov	r0, r24
    6494:	00 0c       	add	r0, r0
    6496:	99 0b       	sbc	r25, r25
    6498:	59 96       	adiw	r26, 0x19	; 25
    649a:	2c 91       	ld	r18, X
    649c:	59 97       	sbiw	r26, 0x19	; 25
    649e:	82 1b       	sub	r24, r18
    64a0:	91 09       	sbc	r25, r1
    64a2:	27 fd       	sbrc	r18, 7
    64a4:	93 95       	inc	r25
    64a6:	5a 96       	adiw	r26, 0x1a	; 26
    64a8:	2c 91       	ld	r18, X
    64aa:	5a 97       	sbiw	r26, 0x1a	; 26
    64ac:	20 34       	cpi	r18, 0x40	; 64
    64ae:	61 f0       	breq	.+24     	; 0x64c8 <u8g_UpdateRefHeight+0xa6>
    64b0:	82 9f       	mul	r24, r18
    64b2:	c0 01       	movw	r24, r0
    64b4:	11 24       	eor	r1, r1
    64b6:	00 24       	eor	r0, r0
    64b8:	88 0f       	add	r24, r24
    64ba:	99 1f       	adc	r25, r25
    64bc:	00 1c       	adc	r0, r0
    64be:	88 0f       	add	r24, r24
    64c0:	99 1f       	adc	r25, r25
    64c2:	00 1c       	adc	r0, r0
    64c4:	89 2f       	mov	r24, r25
    64c6:	90 2d       	mov	r25, r0
    64c8:	5b 96       	adiw	r26, 0x1b	; 27
    64ca:	8c 93       	st	X, r24
    64cc:	08 95       	ret

000064ce <u8g_SetFontPosBaseline>:
    64ce:	2a e7       	ldi	r18, 0x7A	; 122
    64d0:	30 e3       	ldi	r19, 0x30	; 48
    64d2:	fc 01       	movw	r30, r24
    64d4:	36 8b       	std	Z+22, r19	; 0x16
    64d6:	25 8b       	std	Z+21, r18	; 0x15
    64d8:	08 95       	ret

000064da <u8g_SetFont>:

void u8g_SetFont(u8g_t *u8g, const u8g_fntpgm_uint8_t  *font)
{
    64da:	cf 93       	push	r28
    64dc:	df 93       	push	r29
  if ( u8g->font != font )
    64de:	fc 01       	movw	r30, r24
    64e0:	24 81       	ldd	r18, Z+4	; 0x04
    64e2:	35 81       	ldd	r19, Z+5	; 0x05
    64e4:	26 17       	cp	r18, r22
    64e6:	37 07       	cpc	r19, r23
    64e8:	49 f0       	breq	.+18     	; 0x64fc <u8g_SetFont+0x22>
    64ea:	ec 01       	movw	r28, r24
  {
    u8g->font = font;
    64ec:	75 83       	std	Z+5, r23	; 0x05
    64ee:	64 83       	std	Z+4, r22	; 0x04
    u8g_UpdateRefHeight(u8g);
    64f0:	0e 94 11 32 	call	0x6422	; 0x6422 <u8g_UpdateRefHeight>
  return 0;
}

void u8g_SetFontPosBaseline(u8g_t *u8g)
{
  u8g->font_calc_vref = u8g_font_calc_vref_font;
    64f4:	8a e7       	ldi	r24, 0x7A	; 122
    64f6:	90 e3       	ldi	r25, 0x30	; 48
    64f8:	9e 8b       	std	Y+22, r25	; 0x16
    64fa:	8d 8b       	std	Y+21, r24	; 0x15
  {
    u8g->font = font;
    u8g_UpdateRefHeight(u8g);
    u8g_SetFontPosBaseline(u8g);
  }
}
    64fc:	df 91       	pop	r29
    64fe:	cf 91       	pop	r28
    6500:	08 95       	ret

00006502 <u8g_init_data>:
}


void u8g_DrawPixel(u8g_t *u8g, u8g_uint_t x, u8g_uint_t y)
{
  u8g_DrawPixelLL(u8g, u8g->dev, x, y);
    6502:	1f 93       	push	r17
    6504:	cf 93       	push	r28
    6506:	df 93       	push	r29
    6508:	ec 01       	movw	r28, r24
    650a:	1d 82       	std	Y+5, r1	; 0x05
    650c:	1c 82       	std	Y+4, r1	; 0x04
    650e:	1f 82       	std	Y+7, r1	; 0x07
    6510:	1e 82       	std	Y+6, r1	; 0x06
    6512:	19 86       	std	Y+9, r1	; 0x09
    6514:	81 e0       	ldi	r24, 0x01	; 1
    6516:	88 87       	std	Y+8, r24	; 0x08
    6518:	82 e2       	ldi	r24, 0x22	; 34
    651a:	8a 87       	std	Y+10, r24	; 0x0a
    651c:	1f 86       	std	Y+15, r1	; 0x0f
    651e:	1e 86       	std	Y+14, r1	; 0x0e
    6520:	fe 01       	movw	r30, r28
    6522:	b3 96       	adiw	r30, 0x23	; 35
    6524:	9e 01       	movw	r18, r28
    6526:	2f 5c       	subi	r18, 0xCF	; 207
    6528:	3f 4f       	sbci	r19, 0xFF	; 255
    652a:	8f ef       	ldi	r24, 0xFF	; 255
    652c:	81 93       	st	Z+, r24
    652e:	e2 17       	cp	r30, r18
    6530:	f3 07       	cpc	r31, r19
    6532:	e1 f7       	brne	.-8      	; 0x652c <u8g_init_data+0x2a>
    6534:	11 e0       	ldi	r17, 0x01	; 1
    6536:	18 a3       	std	Y+32, r17	; 0x20
    6538:	ce 01       	movw	r24, r28
    653a:	0e 94 67 32 	call	0x64ce	; 0x64ce <u8g_SetFontPosBaseline>
    653e:	1f 8b       	std	Y+23, r17	; 0x17
    6540:	18 8e       	std	Y+24, r1	; 0x18
    6542:	19 8e       	std	Y+25, r1	; 0x19
    6544:	80 e4       	ldi	r24, 0x40	; 64
    6546:	8a 8f       	std	Y+26, r24	; 0x1a
    6548:	1b 8e       	std	Y+27, r1	; 0x1b
    654a:	81 e4       	ldi	r24, 0x41	; 65
    654c:	95 e3       	ldi	r25, 0x35	; 53
    654e:	9a ab       	std	Y+50, r25	; 0x32
    6550:	89 ab       	std	Y+49, r24	; 0x31
    6552:	df 91       	pop	r29
    6554:	cf 91       	pop	r28
    6556:	1f 91       	pop	r17
    6558:	08 95       	ret

0000655a <u8g_call_dev_fn>:
    655a:	db 01       	movw	r26, r22
    655c:	ed 91       	ld	r30, X+
    655e:	fc 91       	ld	r31, X
    6560:	09 95       	icall
    6562:	08 95       	ret

00006564 <u8g_InitLL>:
    6564:	0f 93       	push	r16
    6566:	1f 93       	push	r17
    6568:	cf 93       	push	r28
    656a:	df 93       	push	r29
    656c:	ec 01       	movw	r28, r24
    656e:	8b 01       	movw	r16, r22
    6570:	e9 a9       	ldd	r30, Y+49	; 0x31
    6572:	fa a9       	ldd	r31, Y+50	; 0x32
    6574:	82 e0       	ldi	r24, 0x02	; 2
    6576:	09 95       	icall
    6578:	20 e0       	ldi	r18, 0x00	; 0
    657a:	30 e0       	ldi	r19, 0x00	; 0
    657c:	4a e0       	ldi	r20, 0x0A	; 10
    657e:	b8 01       	movw	r22, r16
    6580:	ce 01       	movw	r24, r28
    6582:	0e 94 ad 32 	call	0x655a	; 0x655a <u8g_call_dev_fn>
    6586:	18 2f       	mov	r17, r24
    6588:	e9 a9       	ldd	r30, Y+49	; 0x31
    658a:	fa a9       	ldd	r31, Y+50	; 0x32
    658c:	83 e0       	ldi	r24, 0x03	; 3
    658e:	09 95       	icall
    6590:	e9 a9       	ldd	r30, Y+49	; 0x31
    6592:	fa a9       	ldd	r31, Y+50	; 0x32
    6594:	80 e0       	ldi	r24, 0x00	; 0
    6596:	09 95       	icall
    6598:	81 2f       	mov	r24, r17
    659a:	df 91       	pop	r29
    659c:	cf 91       	pop	r28
    659e:	1f 91       	pop	r17
    65a0:	0f 91       	pop	r16
    65a2:	08 95       	ret

000065a4 <u8g_FirstPageLL>:
    65a4:	0f 93       	push	r16
    65a6:	1f 93       	push	r17
    65a8:	cf 93       	push	r28
    65aa:	df 93       	push	r29
    65ac:	ec 01       	movw	r28, r24
    65ae:	8b 01       	movw	r16, r22
    65b0:	e9 a9       	ldd	r30, Y+49	; 0x31
    65b2:	fa a9       	ldd	r31, Y+50	; 0x32
    65b4:	82 e0       	ldi	r24, 0x02	; 2
    65b6:	09 95       	icall
    65b8:	e9 a9       	ldd	r30, Y+49	; 0x31
    65ba:	fa a9       	ldd	r31, Y+50	; 0x32
    65bc:	81 e0       	ldi	r24, 0x01	; 1
    65be:	09 95       	icall
    65c0:	20 e0       	ldi	r18, 0x00	; 0
    65c2:	30 e0       	ldi	r19, 0x00	; 0
    65c4:	44 e1       	ldi	r20, 0x14	; 20
    65c6:	b8 01       	movw	r22, r16
    65c8:	ce 01       	movw	r24, r28
    65ca:	0e 94 ad 32 	call	0x655a	; 0x655a <u8g_call_dev_fn>
    65ce:	9e 01       	movw	r18, r28
    65d0:	2d 5c       	subi	r18, 0xCD	; 205
    65d2:	3f 4f       	sbci	r19, 0xFF	; 255
    65d4:	47 e1       	ldi	r20, 0x17	; 23
    65d6:	b8 01       	movw	r22, r16
    65d8:	ce 01       	movw	r24, r28
    65da:	0e 94 ad 32 	call	0x655a	; 0x655a <u8g_call_dev_fn>
    65de:	e9 a9       	ldd	r30, Y+49	; 0x31
    65e0:	fa a9       	ldd	r31, Y+50	; 0x32
    65e2:	80 e0       	ldi	r24, 0x00	; 0
    65e4:	09 95       	icall
    65e6:	df 91       	pop	r29
    65e8:	cf 91       	pop	r28
    65ea:	1f 91       	pop	r17
    65ec:	0f 91       	pop	r16
    65ee:	08 95       	ret

000065f0 <u8g_NextPageLL>:
    65f0:	ef 92       	push	r14
    65f2:	ff 92       	push	r15
    65f4:	1f 93       	push	r17
    65f6:	cf 93       	push	r28
    65f8:	df 93       	push	r29
    65fa:	ec 01       	movw	r28, r24
    65fc:	7b 01       	movw	r14, r22
    65fe:	e9 a9       	ldd	r30, Y+49	; 0x31
    6600:	fa a9       	ldd	r31, Y+50	; 0x32
    6602:	82 e0       	ldi	r24, 0x02	; 2
    6604:	09 95       	icall
    6606:	e9 a9       	ldd	r30, Y+49	; 0x31
    6608:	fa a9       	ldd	r31, Y+50	; 0x32
    660a:	81 e0       	ldi	r24, 0x01	; 1
    660c:	09 95       	icall
    660e:	20 e0       	ldi	r18, 0x00	; 0
    6610:	30 e0       	ldi	r19, 0x00	; 0
    6612:	45 e1       	ldi	r20, 0x15	; 21
    6614:	b7 01       	movw	r22, r14
    6616:	ce 01       	movw	r24, r28
    6618:	0e 94 ad 32 	call	0x655a	; 0x655a <u8g_call_dev_fn>
    661c:	18 2f       	mov	r17, r24
    661e:	88 23       	and	r24, r24
    6620:	41 f0       	breq	.+16     	; 0x6632 <u8g_NextPageLL+0x42>
    6622:	9e 01       	movw	r18, r28
    6624:	2d 5c       	subi	r18, 0xCD	; 205
    6626:	3f 4f       	sbci	r19, 0xFF	; 255
    6628:	47 e1       	ldi	r20, 0x17	; 23
    662a:	b7 01       	movw	r22, r14
    662c:	ce 01       	movw	r24, r28
    662e:	0e 94 ad 32 	call	0x655a	; 0x655a <u8g_call_dev_fn>
    6632:	e9 a9       	ldd	r30, Y+49	; 0x31
    6634:	fa a9       	ldd	r31, Y+50	; 0x32
    6636:	80 e0       	ldi	r24, 0x00	; 0
    6638:	09 95       	icall
    663a:	81 2f       	mov	r24, r17
    663c:	df 91       	pop	r29
    663e:	cf 91       	pop	r28
    6640:	1f 91       	pop	r17
    6642:	ff 90       	pop	r15
    6644:	ef 90       	pop	r14
    6646:	08 95       	ret

00006648 <u8g_GetWidthLL>:
    6648:	cf 93       	push	r28
    664a:	df 93       	push	r29
    664c:	1f 92       	push	r1
    664e:	cd b7       	in	r28, 0x3d	; 61
    6650:	de b7       	in	r29, 0x3e	; 62
    6652:	9e 01       	movw	r18, r28
    6654:	2f 5f       	subi	r18, 0xFF	; 255
    6656:	3f 4f       	sbci	r19, 0xFF	; 255
    6658:	46 e4       	ldi	r20, 0x46	; 70
    665a:	0e 94 ad 32 	call	0x655a	; 0x655a <u8g_call_dev_fn>
    665e:	89 81       	ldd	r24, Y+1	; 0x01
    6660:	0f 90       	pop	r0
    6662:	df 91       	pop	r29
    6664:	cf 91       	pop	r28
    6666:	08 95       	ret

00006668 <u8g_GetHeightLL>:
    6668:	cf 93       	push	r28
    666a:	df 93       	push	r29
    666c:	1f 92       	push	r1
    666e:	cd b7       	in	r28, 0x3d	; 61
    6670:	de b7       	in	r29, 0x3e	; 62
    6672:	9e 01       	movw	r18, r28
    6674:	2f 5f       	subi	r18, 0xFF	; 255
    6676:	3f 4f       	sbci	r19, 0xFF	; 255
    6678:	47 e4       	ldi	r20, 0x47	; 71
    667a:	0e 94 ad 32 	call	0x655a	; 0x655a <u8g_call_dev_fn>
    667e:	89 81       	ldd	r24, Y+1	; 0x01
    6680:	0f 90       	pop	r0
    6682:	df 91       	pop	r29
    6684:	cf 91       	pop	r28
    6686:	08 95       	ret

00006688 <u8g_GetModeLL>:
    6688:	20 e0       	ldi	r18, 0x00	; 0
    668a:	30 e0       	ldi	r19, 0x00	; 0
    668c:	48 e4       	ldi	r20, 0x48	; 72
    668e:	0e 94 ad 32 	call	0x655a	; 0x655a <u8g_call_dev_fn>
    6692:	08 95       	ret

00006694 <u8g_UpdateDimension>:
    6694:	cf 93       	push	r28
    6696:	df 93       	push	r29
    6698:	ec 01       	movw	r28, r24
    669a:	6a 81       	ldd	r22, Y+2	; 0x02
    669c:	7b 81       	ldd	r23, Y+3	; 0x03
    669e:	0e 94 24 33 	call	0x6648	; 0x6648 <u8g_GetWidthLL>
    66a2:	88 83       	st	Y, r24
    66a4:	6a 81       	ldd	r22, Y+2	; 0x02
    66a6:	7b 81       	ldd	r23, Y+3	; 0x03
    66a8:	ce 01       	movw	r24, r28
    66aa:	0e 94 34 33 	call	0x6668	; 0x6668 <u8g_GetHeightLL>
    66ae:	89 83       	std	Y+1, r24	; 0x01
    66b0:	6a 81       	ldd	r22, Y+2	; 0x02
    66b2:	7b 81       	ldd	r23, Y+3	; 0x03
    66b4:	ce 01       	movw	r24, r28
    66b6:	0e 94 44 33 	call	0x6688	; 0x6688 <u8g_GetModeLL>
    66ba:	8b 87       	std	Y+11, r24	; 0x0b
    66bc:	9e 01       	movw	r18, r28
    66be:	2d 5c       	subi	r18, 0xCD	; 205
    66c0:	3f 4f       	sbci	r19, 0xFF	; 255
    66c2:	6a 81       	ldd	r22, Y+2	; 0x02
    66c4:	7b 81       	ldd	r23, Y+3	; 0x03
    66c6:	47 e1       	ldi	r20, 0x17	; 23
    66c8:	ce 01       	movw	r24, r28
    66ca:	0e 94 ad 32 	call	0x655a	; 0x655a <u8g_call_dev_fn>
    66ce:	df 91       	pop	r29
    66d0:	cf 91       	pop	r28
    66d2:	08 95       	ret

000066d4 <u8g_Begin>:
    66d4:	cf 93       	push	r28
    66d6:	df 93       	push	r29
    66d8:	ec 01       	movw	r28, r24
    66da:	6a 81       	ldd	r22, Y+2	; 0x02
    66dc:	7b 81       	ldd	r23, Y+3	; 0x03
    66de:	0e 94 b2 32 	call	0x6564	; 0x6564 <u8g_InitLL>
    66e2:	88 23       	and	r24, r24
    66e4:	21 f0       	breq	.+8      	; 0x66ee <u8g_Begin+0x1a>
    66e6:	ce 01       	movw	r24, r28
    66e8:	0e 94 4a 33 	call	0x6694	; 0x6694 <u8g_UpdateDimension>
    66ec:	81 e0       	ldi	r24, 0x01	; 1
    66ee:	df 91       	pop	r29
    66f0:	cf 91       	pop	r28
    66f2:	08 95       	ret

000066f4 <u8g_InitI2C>:
    66f4:	ef 92       	push	r14
    66f6:	ff 92       	push	r15
    66f8:	1f 93       	push	r17
    66fa:	cf 93       	push	r28
    66fc:	df 93       	push	r29
    66fe:	ec 01       	movw	r28, r24
    6700:	7b 01       	movw	r14, r22
    6702:	14 2f       	mov	r17, r20
    6704:	0e 94 81 32 	call	0x6502	; 0x6502 <u8g_init_data>
    6708:	fb 82       	std	Y+3, r15	; 0x03
    670a:	ea 82       	std	Y+2, r14	; 0x02
    670c:	1e a7       	std	Y+46, r17	; 0x2e
    670e:	ce 01       	movw	r24, r28
    6710:	0e 94 6a 33 	call	0x66d4	; 0x66d4 <u8g_Begin>
    6714:	df 91       	pop	r29
    6716:	cf 91       	pop	r28
    6718:	1f 91       	pop	r17
    671a:	ff 90       	pop	r15
    671c:	ef 90       	pop	r14
    671e:	08 95       	ret

00006720 <u8g_FirstPage>:
    6720:	fc 01       	movw	r30, r24
    6722:	62 81       	ldd	r22, Z+2	; 0x02
    6724:	73 81       	ldd	r23, Z+3	; 0x03
    6726:	0e 94 d2 32 	call	0x65a4	; 0x65a4 <u8g_FirstPageLL>
    672a:	08 95       	ret

0000672c <u8g_NextPage>:
    672c:	cf 93       	push	r28
    672e:	df 93       	push	r29
    6730:	ec 01       	movw	r28, r24
    6732:	ee 85       	ldd	r30, Y+14	; 0x0e
    6734:	ff 85       	ldd	r31, Y+15	; 0x0f
    6736:	30 97       	sbiw	r30, 0x00	; 0
    6738:	09 f0       	breq	.+2      	; 0x673c <u8g_NextPage+0x10>
    673a:	09 95       	icall
    673c:	6a 81       	ldd	r22, Y+2	; 0x02
    673e:	7b 81       	ldd	r23, Y+3	; 0x03
    6740:	ce 01       	movw	r24, r28
    6742:	0e 94 f8 32 	call	0x65f0	; 0x65f0 <u8g_NextPageLL>
    6746:	df 91       	pop	r29
    6748:	cf 91       	pop	r28
    674a:	08 95       	ret

0000674c <u8g_Draw8Pixel>:
}

void u8g_Draw8Pixel(u8g_t *u8g, u8g_uint_t x, u8g_uint_t y, uint8_t dir, uint8_t pixel)
{
    674c:	0f 93       	push	r16
    674e:	fc 01       	movw	r30, r24
  u8g_Draw8PixelLL(u8g, u8g->dev, x, y, dir, pixel);
    6750:	82 81       	ldd	r24, Z+2	; 0x02
    6752:	93 81       	ldd	r25, Z+3	; 0x03
}

void u8g_Draw8PixelLL(u8g_t *u8g, u8g_dev_t *dev, u8g_uint_t x, u8g_uint_t y, uint8_t dir, uint8_t pixel)
{
  u8g_dev_arg_pixel_t *arg = &(u8g->arg_pixel);
  arg->x = x;
    6754:	64 8f       	std	Z+28, r22	; 0x1c
  arg->y = y;
    6756:	45 8f       	std	Z+29, r20	; 0x1d
  arg->dir = dir;
    6758:	27 8f       	std	Z+31, r18	; 0x1f
  arg->pixel = pixel;
    675a:	06 8f       	std	Z+30, r16	; 0x1e
  u8g_call_dev_fn(u8g, dev, U8G_DEV_MSG_SET_PIXEL, arg);
}

void u8g_Draw8PixelLL(u8g_t *u8g, u8g_dev_t *dev, u8g_uint_t x, u8g_uint_t y, uint8_t dir, uint8_t pixel)
{
  u8g_dev_arg_pixel_t *arg = &(u8g->arg_pixel);
    675c:	9f 01       	movw	r18, r30
    675e:	24 5e       	subi	r18, 0xE4	; 228
    6760:	3f 4f       	sbci	r19, 0xFF	; 255
  arg->x = x;
  arg->y = y;
  arg->dir = dir;
  arg->pixel = pixel;
  u8g_call_dev_fn(u8g, dev, U8G_DEV_MSG_SET_8PIXEL, arg);
    6762:	4b e3       	ldi	r20, 0x3B	; 59
    6764:	bc 01       	movw	r22, r24
    6766:	cf 01       	movw	r24, r30
    6768:	0e 94 ad 32 	call	0x655a	; 0x655a <u8g_call_dev_fn>
}

void u8g_Draw8Pixel(u8g_t *u8g, u8g_uint_t x, u8g_uint_t y, uint8_t dir, uint8_t pixel)
{
  u8g_Draw8PixelLL(u8g, u8g->dev, x, y, dir, pixel);
}
    676c:	0f 91       	pop	r16
    676e:	08 95       	ret

00006770 <u8g_page_First>:
void u8g_page_Init(u8g_page_t *p, u8g_uint_t page_height, u8g_uint_t total_height )
{
  p->page_height = page_height;
  p->total_height = total_height;
  p->page = 0;
  u8g_page_First(p);
    6770:	fc 01       	movw	r30, r24
    6772:	12 82       	std	Z+2, r1	; 0x02
    6774:	80 81       	ld	r24, Z
    6776:	81 50       	subi	r24, 0x01	; 1
    6778:	83 83       	std	Z+3, r24	; 0x03
    677a:	14 82       	std	Z+4, r1	; 0x04
    677c:	08 95       	ret

0000677e <u8g_page_Next>:
  p->page_y1--;
  p->page = 0;
}

uint8_t u8g_page_Next(u8g_page_t * p)
{
    677e:	fc 01       	movw	r30, r24
  register u8g_uint_t y1;
  p->page_y0 += p->page_height;
    6780:	90 81       	ld	r25, Z
    6782:	82 81       	ldd	r24, Z+2	; 0x02
    6784:	89 0f       	add	r24, r25
    6786:	82 83       	std	Z+2, r24	; 0x02
  if ( p->page_y0 >= p->total_height )
    6788:	21 81       	ldd	r18, Z+1	; 0x01
    678a:	82 17       	cp	r24, r18
    678c:	60 f4       	brcc	.+24     	; 0x67a6 <u8g_page_Next+0x28>
    return 0;
  p->page++;
    678e:	84 81       	ldd	r24, Z+4	; 0x04
    6790:	8f 5f       	subi	r24, 0xFF	; 255
    6792:	84 83       	std	Z+4, r24	; 0x04
  y1 = p->page_y1;
    6794:	83 81       	ldd	r24, Z+3	; 0x03
  y1 += p->page_height;
    6796:	98 0f       	add	r25, r24
  if ( y1 >= p->total_height )
    6798:	92 17       	cp	r25, r18
    679a:	10 f0       	brcs	.+4      	; 0x67a0 <u8g_page_Next+0x22>
  {
    y1 = p->total_height;
    y1--;
    679c:	9f ef       	ldi	r25, 0xFF	; 255
    679e:	92 0f       	add	r25, r18
  }
  p->page_y1 = y1;
    67a0:	93 83       	std	Z+3, r25	; 0x03
  
  return 1;
    67a2:	81 e0       	ldi	r24, 0x01	; 1
    67a4:	08 95       	ret
uint8_t u8g_page_Next(u8g_page_t * p)
{
  register u8g_uint_t y1;
  p->page_y0 += p->page_height;
  if ( p->page_y0 >= p->total_height )
    return 0;
    67a6:	80 e0       	ldi	r24, 0x00	; 0
    y1--;
  }
  p->page_y1 = y1;
  
  return 1;
}
    67a8:	08 95       	ret

000067aa <u8g_pb_Clear>:
  tmp = bbx->x;
  tmp += bbx->w;
  tmp--;
    
  return u8g_pb_IsXIntersection(pb, bbx->x, tmp);
}
    67aa:	dc 01       	movw	r26, r24
    67ac:	16 96       	adiw	r26, 0x06	; 6
    67ae:	ed 91       	ld	r30, X+
    67b0:	fc 91       	ld	r31, X
    67b2:	17 97       	sbiw	r26, 0x07	; 7
    67b4:	15 96       	adiw	r26, 0x05	; 5
    67b6:	8c 91       	ld	r24, X
    67b8:	9f 01       	movw	r18, r30
    67ba:	28 0f       	add	r18, r24
    67bc:	31 1d       	adc	r19, r1
    67be:	c9 01       	movw	r24, r18
    67c0:	11 92       	st	Z+, r1
    67c2:	e8 17       	cp	r30, r24
    67c4:	f9 07       	cpc	r31, r25
    67c6:	e1 f7       	brne	.-8      	; 0x67c0 <u8g_pb_Clear+0x16>
    67c8:	08 95       	ret

000067ca <u8g_pb_IsYIntersection>:
    67ca:	fc 01       	movw	r30, r24
    67cc:	91 e0       	ldi	r25, 0x01	; 1
    67ce:	83 81       	ldd	r24, Z+3	; 0x03
    67d0:	86 17       	cp	r24, r22
    67d2:	08 f4       	brcc	.+2      	; 0x67d6 <u8g_pb_IsYIntersection+0xc>
    67d4:	90 e0       	ldi	r25, 0x00	; 0
    67d6:	31 e0       	ldi	r19, 0x01	; 1
    67d8:	46 17       	cp	r20, r22
    67da:	08 f0       	brcs	.+2      	; 0x67de <u8g_pb_IsYIntersection+0x14>
    67dc:	30 e0       	ldi	r19, 0x00	; 0
    67de:	83 2f       	mov	r24, r19
    67e0:	89 2b       	or	r24, r25
    67e2:	21 e0       	ldi	r18, 0x01	; 1
    67e4:	52 81       	ldd	r21, Z+2	; 0x02
    67e6:	45 17       	cp	r20, r21
    67e8:	08 f4       	brcc	.+2      	; 0x67ec <u8g_pb_IsYIntersection+0x22>
    67ea:	20 e0       	ldi	r18, 0x00	; 0
    67ec:	28 23       	and	r18, r24
    67ee:	83 2f       	mov	r24, r19
    67f0:	89 23       	and	r24, r25
    67f2:	82 2b       	or	r24, r18
    67f4:	08 95       	ret

000067f6 <u8g_pb_GetPageBox>:

void u8g_pb_GetPageBox(u8g_pb_t *pb, u8g_box_t *box)
{
    67f6:	dc 01       	movw	r26, r24
    67f8:	fb 01       	movw	r30, r22
  box->x0 = 0;
    67fa:	10 82       	st	Z, r1
  box->y0 = pb->p.page_y0;
    67fc:	12 96       	adiw	r26, 0x02	; 2
    67fe:	8c 91       	ld	r24, X
    6800:	12 97       	sbiw	r26, 0x02	; 2
    6802:	81 83       	std	Z+1, r24	; 0x01
  box->x1 = pb->width;
  box->x1--;
    6804:	15 96       	adiw	r26, 0x05	; 5
    6806:	8c 91       	ld	r24, X
    6808:	15 97       	sbiw	r26, 0x05	; 5
    680a:	81 50       	subi	r24, 0x01	; 1
    680c:	82 83       	std	Z+2, r24	; 0x02
  box->y1 = pb->p.page_y1;
    680e:	13 96       	adiw	r26, 0x03	; 3
    6810:	8c 91       	ld	r24, X
    6812:	83 83       	std	Z+3, r24	; 0x03
    6814:	08 95       	ret

00006816 <u8g_pb_Is8PixelVisible>:


uint8_t u8g_pb_Is8PixelVisible(u8g_pb_t *b, u8g_dev_arg_pixel_t *arg_pixel)
{
  u8g_uint_t v0, v1;
  v0 = arg_pixel->y;
    6816:	fb 01       	movw	r30, r22
    6818:	31 81       	ldd	r19, Z+1	; 0x01
  v1 = v0;
  switch( arg_pixel->dir )
    681a:	23 81       	ldd	r18, Z+3	; 0x03
    681c:	21 30       	cpi	r18, 0x01	; 1
    681e:	19 f0       	breq	.+6      	; 0x6826 <u8g_pb_Is8PixelVisible+0x10>
    6820:	23 30       	cpi	r18, 0x03	; 3
    6822:	21 f0       	breq	.+8      	; 0x682c <u8g_pb_Is8PixelVisible+0x16>
    6824:	06 c0       	rjmp	.+12     	; 0x6832 <u8g_pb_Is8PixelVisible+0x1c>
  {
    case 0:
      break;
    case 1:  
      v1 += 8;          /* this is independent from the page height */
    6826:	48 e0       	ldi	r20, 0x08	; 8
    6828:	43 0f       	add	r20, r19
      break;
    682a:	04 c0       	rjmp	.+8      	; 0x6834 <u8g_pb_Is8PixelVisible+0x1e>

uint8_t u8g_pb_Is8PixelVisible(u8g_pb_t *b, u8g_dev_arg_pixel_t *arg_pixel)
{
  u8g_uint_t v0, v1;
  v0 = arg_pixel->y;
  v1 = v0;
    682c:	43 2f       	mov	r20, r19
      v1 += 8;          /* this is independent from the page height */
      break;
    case 2:  
      break;
    case 3: 
      v0 -= 8;
    682e:	38 50       	subi	r19, 0x08	; 8
      break;
    6830:	01 c0       	rjmp	.+2      	; 0x6834 <u8g_pb_Is8PixelVisible+0x1e>

uint8_t u8g_pb_Is8PixelVisible(u8g_pb_t *b, u8g_dev_arg_pixel_t *arg_pixel)
{
  u8g_uint_t v0, v1;
  v0 = arg_pixel->y;
  v1 = v0;
    6832:	43 2f       	mov	r20, r19
      break;
    case 3: 
      v0 -= 8;
      break;
  }
  return u8g_pb_IsYIntersection(b, v0, v1);
    6834:	63 2f       	mov	r22, r19
    6836:	0e 94 e5 33 	call	0x67ca	; 0x67ca <u8g_pb_IsYIntersection>
}
    683a:	08 95       	ret

0000683c <u8g_pb_WriteBuffer>:



uint8_t u8g_pb_WriteBuffer(u8g_pb_t *b, u8g_t *u8g, u8g_dev_t *dev)
{
    683c:	fc 01       	movw	r30, r24
    683e:	cb 01       	movw	r24, r22
    6840:	ba 01       	movw	r22, r20
  return u8g_WriteSequence(u8g, dev, b->width, b->buf);  
    6842:	26 81       	ldd	r18, Z+6	; 0x06
    6844:	37 81       	ldd	r19, Z+7	; 0x07
    6846:	45 81       	ldd	r20, Z+5	; 0x05
    6848:	0e 94 09 2e 	call	0x5c12	; 0x5c12 <u8g_WriteSequence>
}
    684c:	08 95       	ret

0000684e <u8g_pb8v1_set_pixel>:
      case 2: arg_pixel->x--; break;
      case 3: arg_pixel->y--; break;
    }
    pixel <<= 1;
  } while( pixel != 0  );
}
    684e:	dc 01       	movw	r26, r24
    6850:	16 96       	adiw	r26, 0x06	; 6
    6852:	ed 91       	ld	r30, X+
    6854:	fc 91       	ld	r31, X
    6856:	17 97       	sbiw	r26, 0x07	; 7
    6858:	12 96       	adiw	r26, 0x02	; 2
    685a:	8c 91       	ld	r24, X
    685c:	48 1b       	sub	r20, r24
    685e:	47 70       	andi	r20, 0x07	; 7
    6860:	81 e0       	ldi	r24, 0x01	; 1
    6862:	90 e0       	ldi	r25, 0x00	; 0
    6864:	02 c0       	rjmp	.+4      	; 0x686a <u8g_pb8v1_set_pixel+0x1c>
    6866:	88 0f       	add	r24, r24
    6868:	99 1f       	adc	r25, r25
    686a:	4a 95       	dec	r20
    686c:	e2 f7       	brpl	.-8      	; 0x6866 <u8g_pb8v1_set_pixel+0x18>
    686e:	e6 0f       	add	r30, r22
    6870:	f1 1d       	adc	r31, r1
    6872:	22 23       	and	r18, r18
    6874:	21 f0       	breq	.+8      	; 0x687e <u8g_pb8v1_set_pixel+0x30>
    6876:	90 81       	ld	r25, Z
    6878:	89 2b       	or	r24, r25
    687a:	80 83       	st	Z, r24
    687c:	08 95       	ret
    687e:	80 95       	com	r24
    6880:	90 81       	ld	r25, Z
    6882:	89 23       	and	r24, r25
    6884:	80 83       	st	Z, r24
    6886:	08 95       	ret

00006888 <u8g_pb8v1_SetPixel>:
    6888:	fb 01       	movw	r30, r22
    688a:	41 81       	ldd	r20, Z+1	; 0x01
    688c:	fc 01       	movw	r30, r24
    688e:	22 81       	ldd	r18, Z+2	; 0x02
    6890:	42 17       	cp	r20, r18
    6892:	70 f0       	brcs	.+28     	; 0x68b0 <u8g_pb8v1_SetPixel+0x28>
    6894:	23 81       	ldd	r18, Z+3	; 0x03
    6896:	24 17       	cp	r18, r20
    6898:	58 f0       	brcs	.+22     	; 0x68b0 <u8g_pb8v1_SetPixel+0x28>
    689a:	fb 01       	movw	r30, r22
    689c:	30 81       	ld	r19, Z
    689e:	fc 01       	movw	r30, r24
    68a0:	25 81       	ldd	r18, Z+5	; 0x05
    68a2:	32 17       	cp	r19, r18
    68a4:	28 f4       	brcc	.+10     	; 0x68b0 <u8g_pb8v1_SetPixel+0x28>
    68a6:	fb 01       	movw	r30, r22
    68a8:	24 81       	ldd	r18, Z+4	; 0x04
    68aa:	63 2f       	mov	r22, r19
    68ac:	0e 94 27 34 	call	0x684e	; 0x684e <u8g_pb8v1_set_pixel>
    68b0:	08 95       	ret

000068b2 <u8g_pb8v1_Set8PixelOpt2>:


void u8g_pb8v1_Set8PixelOpt2(u8g_pb_t *b, u8g_dev_arg_pixel_t *arg_pixel)
{
    68b2:	df 92       	push	r13
    68b4:	ef 92       	push	r14
    68b6:	ff 92       	push	r15
    68b8:	0f 93       	push	r16
    68ba:	1f 93       	push	r17
    68bc:	cf 93       	push	r28
    68be:	df 93       	push	r29
    68c0:	7c 01       	movw	r14, r24
    68c2:	eb 01       	movw	r28, r22
  register uint8_t pixel = arg_pixel->pixel;
    68c4:	1a 81       	ldd	r17, Y+2	; 0x02
  u8g_uint_t dx = 0;
  u8g_uint_t dy = 0;
  
  switch( arg_pixel->dir )
    68c6:	8b 81       	ldd	r24, Y+3	; 0x03
    68c8:	81 30       	cpi	r24, 0x01	; 1
    68ca:	49 f0       	breq	.+18     	; 0x68de <u8g_pb8v1_Set8PixelOpt2+0x2c>
    68cc:	28 f0       	brcs	.+10     	; 0x68d8 <u8g_pb8v1_Set8PixelOpt2+0x26>
    68ce:	82 30       	cpi	r24, 0x02	; 2
    68d0:	51 f0       	breq	.+20     	; 0x68e6 <u8g_pb8v1_Set8PixelOpt2+0x34>
    68d2:	83 30       	cpi	r24, 0x03	; 3
    68d4:	59 f0       	breq	.+22     	; 0x68ec <u8g_pb8v1_Set8PixelOpt2+0x3a>
    68d6:	0e c0       	rjmp	.+28     	; 0x68f4 <u8g_pb8v1_Set8PixelOpt2+0x42>

void u8g_pb8v1_Set8PixelOpt2(u8g_pb_t *b, u8g_dev_arg_pixel_t *arg_pixel)
{
  register uint8_t pixel = arg_pixel->pixel;
  u8g_uint_t dx = 0;
  u8g_uint_t dy = 0;
    68d8:	d1 2c       	mov	r13, r1
  
  switch( arg_pixel->dir )
  {
    case 0: dx++; break;
    68da:	01 e0       	ldi	r16, 0x01	; 1
    68dc:	0d c0       	rjmp	.+26     	; 0x68f8 <u8g_pb8v1_Set8PixelOpt2+0x46>
    case 1: dy++; break;
    68de:	dd 24       	eor	r13, r13
    68e0:	d3 94       	inc	r13


void u8g_pb8v1_Set8PixelOpt2(u8g_pb_t *b, u8g_dev_arg_pixel_t *arg_pixel)
{
  register uint8_t pixel = arg_pixel->pixel;
  u8g_uint_t dx = 0;
    68e2:	00 e0       	ldi	r16, 0x00	; 0
  u8g_uint_t dy = 0;
  
  switch( arg_pixel->dir )
  {
    case 0: dx++; break;
    case 1: dy++; break;
    68e4:	09 c0       	rjmp	.+18     	; 0x68f8 <u8g_pb8v1_Set8PixelOpt2+0x46>

void u8g_pb8v1_Set8PixelOpt2(u8g_pb_t *b, u8g_dev_arg_pixel_t *arg_pixel)
{
  register uint8_t pixel = arg_pixel->pixel;
  u8g_uint_t dx = 0;
  u8g_uint_t dy = 0;
    68e6:	d1 2c       	mov	r13, r1
  
  switch( arg_pixel->dir )
  {
    case 0: dx++; break;
    case 1: dy++; break;
    case 2: dx--; break;
    68e8:	0f ef       	ldi	r16, 0xFF	; 255
    68ea:	06 c0       	rjmp	.+12     	; 0x68f8 <u8g_pb8v1_Set8PixelOpt2+0x46>
    case 3: dy--; break;
    68ec:	dd 24       	eor	r13, r13
    68ee:	da 94       	dec	r13


void u8g_pb8v1_Set8PixelOpt2(u8g_pb_t *b, u8g_dev_arg_pixel_t *arg_pixel)
{
  register uint8_t pixel = arg_pixel->pixel;
  u8g_uint_t dx = 0;
    68f0:	00 e0       	ldi	r16, 0x00	; 0
  switch( arg_pixel->dir )
  {
    case 0: dx++; break;
    case 1: dy++; break;
    case 2: dx--; break;
    case 3: dy--; break;
    68f2:	02 c0       	rjmp	.+4      	; 0x68f8 <u8g_pb8v1_Set8PixelOpt2+0x46>

void u8g_pb8v1_Set8PixelOpt2(u8g_pb_t *b, u8g_dev_arg_pixel_t *arg_pixel)
{
  register uint8_t pixel = arg_pixel->pixel;
  u8g_uint_t dx = 0;
  u8g_uint_t dy = 0;
    68f4:	d1 2c       	mov	r13, r1


void u8g_pb8v1_Set8PixelOpt2(u8g_pb_t *b, u8g_dev_arg_pixel_t *arg_pixel)
{
  register uint8_t pixel = arg_pixel->pixel;
  u8g_uint_t dx = 0;
    68f6:	00 e0       	ldi	r16, 0x00	; 0
    case 3: dy--; break;
  }
  
  do
  {
    if ( pixel & 128 )
    68f8:	11 23       	and	r17, r17
    68fa:	24 f4       	brge	.+8      	; 0x6904 <u8g_pb8v1_Set8PixelOpt2+0x52>
      u8g_pb8v1_SetPixel(b, arg_pixel);
    68fc:	be 01       	movw	r22, r28
    68fe:	c7 01       	movw	r24, r14
    6900:	0e 94 44 34 	call	0x6888	; 0x6888 <u8g_pb8v1_SetPixel>
    arg_pixel->x += dx;
    6904:	98 81       	ld	r25, Y
    6906:	90 0f       	add	r25, r16
    6908:	98 83       	st	Y, r25
    arg_pixel->y += dy;
    690a:	99 81       	ldd	r25, Y+1	; 0x01
    690c:	9d 0d       	add	r25, r13
    690e:	99 83       	std	Y+1, r25	; 0x01
    pixel <<= 1;
    6910:	11 0f       	add	r17, r17
  } while( pixel != 0  );
    6912:	91 f7       	brne	.-28     	; 0x68f8 <u8g_pb8v1_Set8PixelOpt2+0x46>
  
}
    6914:	df 91       	pop	r29
    6916:	cf 91       	pop	r28
    6918:	1f 91       	pop	r17
    691a:	0f 91       	pop	r16
    691c:	ff 90       	pop	r15
    691e:	ef 90       	pop	r14
    6920:	df 90       	pop	r13
    6922:	08 95       	ret

00006924 <u8g_dev_pb8v1_base_fn>:

uint8_t u8g_dev_pb8v1_base_fn(u8g_t *u8g, u8g_dev_t *dev, uint8_t msg, void *arg)
{
    6924:	0f 93       	push	r16
    6926:	1f 93       	push	r17
    6928:	cf 93       	push	r28
    692a:	df 93       	push	r29
  u8g_pb_t *pb = (u8g_pb_t *)(dev->dev_mem);
    692c:	fb 01       	movw	r30, r22
    692e:	c2 81       	ldd	r28, Z+2	; 0x02
    6930:	d3 81       	ldd	r29, Z+3	; 0x03
  switch(msg)
    6932:	50 e0       	ldi	r21, 0x00	; 0
    6934:	fa 01       	movw	r30, r20
    6936:	74 97       	sbiw	r30, 0x14	; 20
    6938:	e4 33       	cpi	r30, 0x34	; 52
    693a:	f1 05       	cpc	r31, r1
    693c:	c8 f5       	brcc	.+114    	; 0x69b0 <u8g_dev_pb8v1_base_fn+0x8c>
    693e:	89 01       	movw	r16, r18
    6940:	ec 5c       	subi	r30, 0xCC	; 204
    6942:	ff 4f       	sbci	r31, 0xFF	; 255
    6944:	0c 94 22 37 	jmp	0x6e44	; 0x6e44 <__tablejump2__>
  {
    case U8G_DEV_MSG_SET_8PIXEL:
      if ( u8g_pb_Is8PixelVisible(pb, (u8g_dev_arg_pixel_t *)arg) )
    6948:	b9 01       	movw	r22, r18
    694a:	ce 01       	movw	r24, r28
    694c:	0e 94 0b 34 	call	0x6816	; 0x6816 <u8g_pb_Is8PixelVisible>
    6950:	88 23       	and	r24, r24
    6952:	81 f1       	breq	.+96     	; 0x69b4 <u8g_dev_pb8v1_base_fn+0x90>
        u8g_pb8v1_Set8PixelOpt2(pb, (u8g_dev_arg_pixel_t *)arg);
    6954:	b8 01       	movw	r22, r16
    6956:	ce 01       	movw	r24, r28
    6958:	0e 94 59 34 	call	0x68b2	; 0x68b2 <u8g_pb8v1_Set8PixelOpt2>
    case U8G_DEV_MSG_SET_XY_CB:
      break;
    case U8G_DEV_MSG_GET_MODE:
      return U8G_MODE_BW;
  }
  return 1;
    695c:	81 e0       	ldi	r24, 0x01	; 1
    695e:	2b c0       	rjmp	.+86     	; 0x69b6 <u8g_dev_pb8v1_base_fn+0x92>
    case U8G_DEV_MSG_SET_8PIXEL:
      if ( u8g_pb_Is8PixelVisible(pb, (u8g_dev_arg_pixel_t *)arg) )
        u8g_pb8v1_Set8PixelOpt2(pb, (u8g_dev_arg_pixel_t *)arg);
      break;
    case U8G_DEV_MSG_SET_PIXEL:
        u8g_pb8v1_SetPixel(pb, (u8g_dev_arg_pixel_t *)arg);
    6960:	b9 01       	movw	r22, r18
    6962:	ce 01       	movw	r24, r28
    6964:	0e 94 44 34 	call	0x6888	; 0x6888 <u8g_pb8v1_SetPixel>
    case U8G_DEV_MSG_SET_XY_CB:
      break;
    case U8G_DEV_MSG_GET_MODE:
      return U8G_MODE_BW;
  }
  return 1;
    6968:	81 e0       	ldi	r24, 0x01	; 1
      if ( u8g_pb_Is8PixelVisible(pb, (u8g_dev_arg_pixel_t *)arg) )
        u8g_pb8v1_Set8PixelOpt2(pb, (u8g_dev_arg_pixel_t *)arg);
      break;
    case U8G_DEV_MSG_SET_PIXEL:
        u8g_pb8v1_SetPixel(pb, (u8g_dev_arg_pixel_t *)arg);
      break;
    696a:	25 c0       	rjmp	.+74     	; 0x69b6 <u8g_dev_pb8v1_base_fn+0x92>
    case U8G_DEV_MSG_INIT:
      break;
    case U8G_DEV_MSG_STOP:
      break;
    case U8G_DEV_MSG_PAGE_FIRST:
      u8g_pb_Clear(pb);
    696c:	ce 01       	movw	r24, r28
    696e:	0e 94 d5 33 	call	0x67aa	; 0x67aa <u8g_pb_Clear>
      u8g_page_First(&(pb->p));
    6972:	ce 01       	movw	r24, r28
    6974:	0e 94 b8 33 	call	0x6770	; 0x6770 <u8g_page_First>
    case U8G_DEV_MSG_SET_XY_CB:
      break;
    case U8G_DEV_MSG_GET_MODE:
      return U8G_MODE_BW;
  }
  return 1;
    6978:	81 e0       	ldi	r24, 0x01	; 1
    case U8G_DEV_MSG_STOP:
      break;
    case U8G_DEV_MSG_PAGE_FIRST:
      u8g_pb_Clear(pb);
      u8g_page_First(&(pb->p));
      break;
    697a:	1d c0       	rjmp	.+58     	; 0x69b6 <u8g_dev_pb8v1_base_fn+0x92>
    case U8G_DEV_MSG_PAGE_NEXT:
      if ( u8g_page_Next(&(pb->p)) == 0 )
    697c:	ce 01       	movw	r24, r28
    697e:	0e 94 bf 33 	call	0x677e	; 0x677e <u8g_page_Next>
    6982:	88 23       	and	r24, r24
    6984:	c1 f0       	breq	.+48     	; 0x69b6 <u8g_dev_pb8v1_base_fn+0x92>
        return 0;
      u8g_pb_Clear(pb);
    6986:	ce 01       	movw	r24, r28
    6988:	0e 94 d5 33 	call	0x67aa	; 0x67aa <u8g_pb_Clear>
    case U8G_DEV_MSG_SET_XY_CB:
      break;
    case U8G_DEV_MSG_GET_MODE:
      return U8G_MODE_BW;
  }
  return 1;
    698c:	81 e0       	ldi	r24, 0x01	; 1
      break;
    case U8G_DEV_MSG_PAGE_NEXT:
      if ( u8g_page_Next(&(pb->p)) == 0 )
        return 0;
      u8g_pb_Clear(pb);
      break;
    698e:	13 c0       	rjmp	.+38     	; 0x69b6 <u8g_dev_pb8v1_base_fn+0x92>
#ifdef U8G_DEV_MSG_IS_BBX_INTERSECTION
    case U8G_DEV_MSG_IS_BBX_INTERSECTION:
      return u8g_pb_IsIntersection(pb, (u8g_dev_arg_bbx_t *)arg);
#endif
    case U8G_DEV_MSG_GET_PAGE_BOX:
      u8g_pb_GetPageBox(pb, (u8g_box_t *)arg);
    6990:	b9 01       	movw	r22, r18
    6992:	ce 01       	movw	r24, r28
    6994:	0e 94 fb 33 	call	0x67f6	; 0x67f6 <u8g_pb_GetPageBox>
    case U8G_DEV_MSG_SET_XY_CB:
      break;
    case U8G_DEV_MSG_GET_MODE:
      return U8G_MODE_BW;
  }
  return 1;
    6998:	81 e0       	ldi	r24, 0x01	; 1
    case U8G_DEV_MSG_IS_BBX_INTERSECTION:
      return u8g_pb_IsIntersection(pb, (u8g_dev_arg_bbx_t *)arg);
#endif
    case U8G_DEV_MSG_GET_PAGE_BOX:
      u8g_pb_GetPageBox(pb, (u8g_box_t *)arg);
      break;
    699a:	0d c0       	rjmp	.+26     	; 0x69b6 <u8g_dev_pb8v1_base_fn+0x92>
    case U8G_DEV_MSG_GET_WIDTH:
      *((u8g_uint_t *)arg) = pb->width;
    699c:	8d 81       	ldd	r24, Y+5	; 0x05
    699e:	f9 01       	movw	r30, r18
    69a0:	80 83       	st	Z, r24
    case U8G_DEV_MSG_SET_XY_CB:
      break;
    case U8G_DEV_MSG_GET_MODE:
      return U8G_MODE_BW;
  }
  return 1;
    69a2:	81 e0       	ldi	r24, 0x01	; 1
    case U8G_DEV_MSG_GET_PAGE_BOX:
      u8g_pb_GetPageBox(pb, (u8g_box_t *)arg);
      break;
    case U8G_DEV_MSG_GET_WIDTH:
      *((u8g_uint_t *)arg) = pb->width;
      break;
    69a4:	08 c0       	rjmp	.+16     	; 0x69b6 <u8g_dev_pb8v1_base_fn+0x92>
    case U8G_DEV_MSG_GET_HEIGHT:
      *((u8g_uint_t *)arg) = pb->p.total_height;
    69a6:	89 81       	ldd	r24, Y+1	; 0x01
    69a8:	f9 01       	movw	r30, r18
    69aa:	80 83       	st	Z, r24
    case U8G_DEV_MSG_SET_XY_CB:
      break;
    case U8G_DEV_MSG_GET_MODE:
      return U8G_MODE_BW;
  }
  return 1;
    69ac:	81 e0       	ldi	r24, 0x01	; 1
    case U8G_DEV_MSG_GET_WIDTH:
      *((u8g_uint_t *)arg) = pb->width;
      break;
    case U8G_DEV_MSG_GET_HEIGHT:
      *((u8g_uint_t *)arg) = pb->p.total_height;
      break;
    69ae:	03 c0       	rjmp	.+6      	; 0x69b6 <u8g_dev_pb8v1_base_fn+0x92>
    case U8G_DEV_MSG_SET_COLOR_ENTRY:
      break;
    case U8G_DEV_MSG_SET_XY_CB:
      break;
    case U8G_DEV_MSG_GET_MODE:
      return U8G_MODE_BW;
    69b0:	81 e0       	ldi	r24, 0x01	; 1
    69b2:	01 c0       	rjmp	.+2      	; 0x69b6 <u8g_dev_pb8v1_base_fn+0x92>
  }
  return 1;
    69b4:	81 e0       	ldi	r24, 0x01	; 1
}
    69b6:	df 91       	pop	r29
    69b8:	cf 91       	pop	r28
    69ba:	1f 91       	pop	r17
    69bc:	0f 91       	pop	r16
    69be:	08 95       	ret

000069c0 <u8g_draw_hline>:
    h ^=7;
    h++;
    pixel <<= h&7;
    u8g_Draw8Pixel(u8g, x, y, 1, pixel);
  }
}
    69c0:	cf 92       	push	r12
    69c2:	df 92       	push	r13
    69c4:	ef 92       	push	r14
    69c6:	ff 92       	push	r15
    69c8:	0f 93       	push	r16
    69ca:	1f 93       	push	r17
    69cc:	cf 93       	push	r28
    69ce:	df 93       	push	r29
    69d0:	7c 01       	movw	r14, r24
    69d2:	c6 2e       	mov	r12, r22
    69d4:	14 2f       	mov	r17, r20
    69d6:	d2 2e       	mov	r13, r18
    69d8:	47 e0       	ldi	r20, 0x07	; 7
    69da:	42 17       	cp	r20, r18
    69dc:	b8 f4       	brcc	.+46     	; 0x6a0c <u8g_draw_hline+0x4c>
    69de:	d2 2f       	mov	r29, r18
    69e0:	c6 2f       	mov	r28, r22
    69e2:	0f ef       	ldi	r16, 0xFF	; 255
    69e4:	20 e0       	ldi	r18, 0x00	; 0
    69e6:	41 2f       	mov	r20, r17
    69e8:	6c 2f       	mov	r22, r28
    69ea:	c7 01       	movw	r24, r14
    69ec:	0e 94 a6 33 	call	0x674c	; 0x674c <u8g_Draw8Pixel>
    69f0:	d8 50       	subi	r29, 0x08	; 8
    69f2:	c8 5f       	subi	r28, 0xF8	; 248
    69f4:	d8 30       	cpi	r29, 0x08	; 8
    69f6:	a8 f7       	brcc	.-22     	; 0x69e2 <u8g_draw_hline+0x22>
    69f8:	9d 2d       	mov	r25, r13
    69fa:	97 70       	andi	r25, 0x07	; 7
    69fc:	28 e0       	ldi	r18, 0x08	; 8
    69fe:	2c 0d       	add	r18, r12
    6a00:	88 ef       	ldi	r24, 0xF8	; 248
    6a02:	8d 0d       	add	r24, r13
    6a04:	88 7f       	andi	r24, 0xF8	; 248
    6a06:	c2 2e       	mov	r12, r18
    6a08:	c8 0e       	add	r12, r24
    6a0a:	01 c0       	rjmp	.+2      	; 0x6a0e <u8g_draw_hline+0x4e>
    6a0c:	92 2f       	mov	r25, r18
    6a0e:	99 23       	and	r25, r25
    6a10:	99 f0       	breq	.+38     	; 0x6a38 <u8g_draw_hline+0x78>
    6a12:	87 e0       	ldi	r24, 0x07	; 7
    6a14:	89 27       	eor	r24, r25
    6a16:	8f 5f       	subi	r24, 0xFF	; 255
    6a18:	87 70       	andi	r24, 0x07	; 7
    6a1a:	2f ef       	ldi	r18, 0xFF	; 255
    6a1c:	30 e0       	ldi	r19, 0x00	; 0
    6a1e:	a9 01       	movw	r20, r18
    6a20:	02 c0       	rjmp	.+4      	; 0x6a26 <u8g_draw_hline+0x66>
    6a22:	44 0f       	add	r20, r20
    6a24:	55 1f       	adc	r21, r21
    6a26:	8a 95       	dec	r24
    6a28:	e2 f7       	brpl	.-8      	; 0x6a22 <u8g_draw_hline+0x62>
    6a2a:	04 2f       	mov	r16, r20
    6a2c:	20 e0       	ldi	r18, 0x00	; 0
    6a2e:	41 2f       	mov	r20, r17
    6a30:	6c 2d       	mov	r22, r12
    6a32:	c7 01       	movw	r24, r14
    6a34:	0e 94 a6 33 	call	0x674c	; 0x674c <u8g_Draw8Pixel>
    6a38:	df 91       	pop	r29
    6a3a:	cf 91       	pop	r28
    6a3c:	1f 91       	pop	r17
    6a3e:	0f 91       	pop	r16
    6a40:	ff 90       	pop	r15
    6a42:	ef 90       	pop	r14
    6a44:	df 90       	pop	r13
    6a46:	cf 90       	pop	r12
    6a48:	08 95       	ret

00006a4a <u8g_DrawHLine>:

void u8g_DrawHLine(u8g_t *u8g, u8g_uint_t x, u8g_uint_t y, u8g_uint_t w)
{
    6a4a:	ef 92       	push	r14
    6a4c:	ff 92       	push	r15
    6a4e:	0f 93       	push	r16
    6a50:	1f 93       	push	r17
    6a52:	cf 93       	push	r28
    6a54:	df 93       	push	r29
    6a56:	ec 01       	movw	r28, r24
    6a58:	16 2f       	mov	r17, r22
    6a5a:	f4 2e       	mov	r15, r20
    6a5c:	e2 2e       	mov	r14, r18
  if ( u8g_IsBBXIntersection(u8g, x, y, w, 1) == 0 )
    6a5e:	01 e0       	ldi	r16, 0x01	; 1
    6a60:	0e 94 99 2d 	call	0x5b32	; 0x5b32 <u8g_IsBBXIntersection>
    6a64:	88 23       	and	r24, r24
    6a66:	31 f0       	breq	.+12     	; 0x6a74 <u8g_DrawHLine+0x2a>
    return;
  u8g_draw_hline(u8g, x, y, w);
    6a68:	2e 2d       	mov	r18, r14
    6a6a:	4f 2d       	mov	r20, r15
    6a6c:	61 2f       	mov	r22, r17
    6a6e:	ce 01       	movw	r24, r28
    6a70:	0e 94 e0 34 	call	0x69c0	; 0x69c0 <u8g_draw_hline>
}
    6a74:	df 91       	pop	r29
    6a76:	cf 91       	pop	r28
    6a78:	1f 91       	pop	r17
    6a7a:	0f 91       	pop	r16
    6a7c:	ff 90       	pop	r15
    6a7e:	ef 90       	pop	r14
    6a80:	08 95       	ret

00006a82 <u8g_state_dummy_cb>:

#include <stddef.h>
#include "u8g.h"

void u8g_state_dummy_cb(uint8_t msg)
{
    6a82:	08 95       	ret

00006a84 <UART_Init>:
		}
		if(ticks%10000 == 50000){
			PINB = (0<<DBG_LED_PIN);
		}
		ticks++;
	}
    6a84:	22 e0       	ldi	r18, 0x02	; 2
    6a86:	20 93 c0 00 	sts	0x00C0, r18	; 0x8000c0 <__TEXT_REGION_LENGTH__+0x7e00c0>
    6a8a:	9c 01       	movw	r18, r24
    6a8c:	40 e0       	ldi	r20, 0x00	; 0
    6a8e:	50 e0       	ldi	r21, 0x00	; 0
    6a90:	60 e4       	ldi	r22, 0x40	; 64
    6a92:	72 e4       	ldi	r23, 0x42	; 66
    6a94:	8f e0       	ldi	r24, 0x0F	; 15
    6a96:	90 e0       	ldi	r25, 0x00	; 0
    6a98:	0e 94 03 37 	call	0x6e06	; 0x6e06 <__divmodsi4>
    6a9c:	21 50       	subi	r18, 0x01	; 1
    6a9e:	31 09       	sbc	r19, r1
    6aa0:	30 93 c5 00 	sts	0x00C5, r19	; 0x8000c5 <__TEXT_REGION_LENGTH__+0x7e00c5>
    6aa4:	20 93 c4 00 	sts	0x00C4, r18	; 0x8000c4 <__TEXT_REGION_LENGTH__+0x7e00c4>
    6aa8:	88 e9       	ldi	r24, 0x98	; 152
    6aaa:	80 93 c1 00 	sts	0x00C1, r24	; 0x8000c1 <__TEXT_REGION_LENGTH__+0x7e00c1>
    6aae:	e2 ec       	ldi	r30, 0xC2	; 194
    6ab0:	f0 e0       	ldi	r31, 0x00	; 0
    6ab2:	86 e0       	ldi	r24, 0x06	; 6
    6ab4:	80 83       	st	Z, r24
    6ab6:	80 81       	ld	r24, Z
    6ab8:	80 83       	st	Z, r24
    6aba:	81 e0       	ldi	r24, 0x01	; 1
    6abc:	08 95       	ret

00006abe <UART_Send>:
    6abe:	e0 ec       	ldi	r30, 0xC0	; 192
    6ac0:	f0 e0       	ldi	r31, 0x00	; 0
    6ac2:	90 81       	ld	r25, Z
    6ac4:	95 ff       	sbrs	r25, 5
    6ac6:	fd cf       	rjmp	.-6      	; 0x6ac2 <UART_Send+0x4>
    6ac8:	80 93 c6 00 	sts	0x00C6, r24	; 0x8000c6 <__TEXT_REGION_LENGTH__+0x7e00c6>
    6acc:	08 95       	ret

00006ace <__vector_5>:
}


//Activates if the pairing button is pressed
ISR(PCINT2_vect){
    6ace:	1f 92       	push	r1
    6ad0:	0f 92       	push	r0
    6ad2:	0f b6       	in	r0, 0x3f	; 63
    6ad4:	0f 92       	push	r0
    6ad6:	11 24       	eor	r1, r1
	//BT_Pair();
}
    6ad8:	0f 90       	pop	r0
    6ada:	0f be       	out	0x3f, r0	; 63
    6adc:	0f 90       	pop	r0
    6ade:	1f 90       	pop	r1
    6ae0:	18 95       	reti

00006ae2 <hardware_init>:
    if(ADC_value > 500){
        return TRUE;
    } else {
        return FALSE;
    }
}
    6ae2:	cf 93       	push	r28
    6ae4:	df 93       	push	r29
    6ae6:	81 e0       	ldi	r24, 0x01	; 1
    6ae8:	84 b9       	out	0x04, r24	; 4
    6aea:	85 b9       	out	0x05, r24	; 5
    6aec:	80 e0       	ldi	r24, 0x00	; 0
    6aee:	91 ee       	ldi	r25, 0xE1	; 225
    6af0:	0e 94 42 35 	call	0x6a84	; 0x6a84 <UART_Init>
    6af4:	d8 2f       	mov	r29, r24
    6af6:	0e 94 5c 2c 	call	0x58b8	; 0x58b8 <OLED_Init>
    6afa:	88 23       	and	r24, r24
    6afc:	29 f0       	breq	.+10     	; 0x6b08 <hardware_init+0x26>
    6afe:	c1 e0       	ldi	r28, 0x01	; 1
    6b00:	d1 11       	cpse	r29, r1
    6b02:	03 c0       	rjmp	.+6      	; 0x6b0a <hardware_init+0x28>
    6b04:	c0 e0       	ldi	r28, 0x00	; 0
    6b06:	01 c0       	rjmp	.+2      	; 0x6b0a <hardware_init+0x28>
    6b08:	c0 e0       	ldi	r28, 0x00	; 0
    6b0a:	0e 94 33 2c 	call	0x5866	; 0x5866 <ADC_init>
    6b0e:	28 98       	cbi	0x05, 0	; 5
    6b10:	8c 2f       	mov	r24, r28
    6b12:	df 91       	pop	r29
    6b14:	cf 91       	pop	r28
    6b16:	08 95       	ret

00006b18 <Calculate_voltage>:
    data.time_left = Calculate_time_left(data.ascii_volts);

    return data;
}

data_struct Calculate_voltage(void){
    6b18:	0f 93       	push	r16
    6b1a:	1f 93       	push	r17
    6b1c:	cf 93       	push	r28
    6b1e:	df 93       	push	r29
    6b20:	ec 01       	movw	r28, r24

    data_struct result;

    result.volts = Read_ADC(0);
    6b22:	80 e0       	ldi	r24, 0x00	; 0
    6b24:	0e 94 3e 2c 	call	0x587c	; 0x587c <Read_ADC>
    6b28:	18 2f       	mov	r17, r24
    6b2a:	09 2f       	mov	r16, r25

    uint8_t test_volt = (1024/5) * result.volts;
    UART_Send(test_volt);
    6b2c:	8c ec       	ldi	r24, 0xCC	; 204
    6b2e:	18 9f       	mul	r17, r24
    6b30:	80 2d       	mov	r24, r0
    6b32:	11 24       	eor	r1, r1
    6b34:	0e 94 5f 35 	call	0x6abe	; 0x6abe <UART_Send>
    percentage = (((maxVolt-minVolt)-(maxVolt-vin))/(maxVolt-minVolt));
    round(percentage);
    tlefth = (AH * percentage)/60;
*/

    return result;
    6b38:	fe 01       	movw	r30, r28
    6b3a:	e2 5a       	subi	r30, 0xA2	; 162
    6b3c:	ff 4f       	sbci	r31, 0xFF	; 255
    6b3e:	10 83       	st	Z, r17
    6b40:	01 83       	std	Z+1, r16	; 0x01
}
    6b42:	ce 01       	movw	r24, r28
    6b44:	df 91       	pop	r29
    6b46:	cf 91       	pop	r28
    6b48:	1f 91       	pop	r17
    6b4a:	0f 91       	pop	r16
    6b4c:	08 95       	ret

00006b4e <Get_ADC_and_time>:

    } while ( u8g_NextPage(&oled_display) );

}

data_struct Get_ADC_and_time(void){
    6b4e:	cf 93       	push	r28
    6b50:	df 93       	push	r29
    6b52:	ec 01       	movw	r28, r24

    data_struct data;

    // Get adc data and calculate it to correct value
    data = Calculate_voltage();
    6b54:	0e 94 8c 35 	call	0x6b18	; 0x6b18 <Calculate_voltage>
    
    // Takes the voltage as an argument and use it to calculate
    // time left on the battery. 
    data.time_left = Calculate_time_left(data.ascii_volts);

    return data;
    6b58:	fe 01       	movw	r30, r28
    6b5a:	e0 5a       	subi	r30, 0xA0	; 160
    6b5c:	ff 4f       	sbci	r31, 0xFF	; 255
    6b5e:	81 e0       	ldi	r24, 0x01	; 1
    6b60:	90 e0       	ldi	r25, 0x00	; 0
    6b62:	91 83       	std	Z+1, r25	; 0x01
    6b64:	80 83       	st	Z, r24
}
    6b66:	ce 01       	movw	r24, r28
    6b68:	df 91       	pop	r29
    6b6a:	cf 91       	pop	r28
    6b6c:	08 95       	ret

00006b6e <OLED_printtime>:
    } else {
        return FALSE;
    }
}

void OLED_printtime(data_struct values){
    6b6e:	ef 92       	push	r14
    6b70:	ff 92       	push	r15
    6b72:	1f 93       	push	r17
    6b74:	cf 93       	push	r28
    6b76:	df 93       	push	r29
    6b78:	cd b7       	in	r28, 0x3d	; 61
    6b7a:	de b7       	in	r29, 0x3e	; 62
    6b7c:	c4 5c       	subi	r28, 0xC4	; 196
    6b7e:	d1 09       	sbc	r29, r1
    6b80:	0f b6       	in	r0, 0x3f	; 63
    6b82:	f8 94       	cli
    6b84:	de bf       	out	0x3e, r29	; 62
    6b86:	0f be       	out	0x3f, r0	; 63
    6b88:	cd bf       	out	0x3d, r28	; 61

    data_struct data;

    // Get the adv values and store that and time left on battery
    data = Get_ADC_and_time();
    6b8a:	ce 01       	movw	r24, r28
    6b8c:	8d 59       	subi	r24, 0x9D	; 157
    6b8e:	9f 4f       	sbci	r25, 0xFF	; 255
    6b90:	0e 94 a7 35 	call	0x6b4e	; 0x6b4e <Get_ADC_and_time>
    6b94:	82 e6       	ldi	r24, 0x62	; 98
    6b96:	fe 01       	movw	r30, r28
    6b98:	ed 59       	subi	r30, 0x9D	; 157
    6b9a:	ff 4f       	sbci	r31, 0xFF	; 255
    6b9c:	de 01       	movw	r26, r28
    6b9e:	11 96       	adiw	r26, 0x01	; 1
    6ba0:	01 90       	ld	r0, Z+
    6ba2:	0d 92       	st	X+, r0
    6ba4:	8a 95       	dec	r24
    6ba6:	e1 f7       	brne	.-8      	; 0x6ba0 <OLED_printtime+0x32>

    // Convert the results to ascii values
    data = OLED_Convertvalues(values);
    6ba8:	8d b7       	in	r24, 0x3d	; 61
    6baa:	9e b7       	in	r25, 0x3e	; 62
    6bac:	82 56       	subi	r24, 0x62	; 98
    6bae:	91 09       	sbc	r25, r1
    6bb0:	0f b6       	in	r0, 0x3f	; 63
    6bb2:	f8 94       	cli
    6bb4:	9e bf       	out	0x3e, r25	; 62
    6bb6:	0f be       	out	0x3f, r0	; 63
    6bb8:	8d bf       	out	0x3d, r24	; 61
    6bba:	ad b7       	in	r26, 0x3d	; 61
    6bbc:	be b7       	in	r27, 0x3e	; 62
    6bbe:	11 96       	adiw	r26, 0x01	; 1
    6bc0:	82 e6       	ldi	r24, 0x62	; 98
    6bc2:	fe 01       	movw	r30, r28
    6bc4:	e4 53       	subi	r30, 0x34	; 52
    6bc6:	ff 4f       	sbci	r31, 0xFF	; 255
    6bc8:	01 90       	ld	r0, Z+
    6bca:	0d 92       	st	X+, r0
    6bcc:	8a 95       	dec	r24
    6bce:	e1 f7       	brne	.-8      	; 0x6bc8 <OLED_printtime+0x5a>
    6bd0:	ce 01       	movw	r24, r28
    6bd2:	8d 59       	subi	r24, 0x9D	; 157
    6bd4:	9f 4f       	sbci	r25, 0xFF	; 255
    6bd6:	0e 94 c5 2c 	call	0x598a	; 0x598a <OLED_Convertvalues>
    6bda:	82 e6       	ldi	r24, 0x62	; 98
    6bdc:	fe 01       	movw	r30, r28
    6bde:	ed 59       	subi	r30, 0x9D	; 157
    6be0:	ff 4f       	sbci	r31, 0xFF	; 255
    6be2:	de 01       	movw	r26, r28
    6be4:	11 96       	adiw	r26, 0x01	; 1
    6be6:	01 90       	ld	r0, Z+
    6be8:	0d 92       	st	X+, r0
    6bea:	8a 95       	dec	r24
    6bec:	e1 f7       	brne	.-8      	; 0x6be6 <OLED_printtime+0x78>

    // Prints it out on the screen
    u8g_FirstPage(&oled_display);
    6bee:	0f b6       	in	r0, 0x3f	; 63
    6bf0:	f8 94       	cli
    6bf2:	de bf       	out	0x3e, r29	; 62
    6bf4:	0f be       	out	0x3f, r0	; 63
    6bf6:	cd bf       	out	0x3d, r28	; 61
    6bf8:	8f ec       	ldi	r24, 0xCF	; 207
    6bfa:	91 e0       	ldi	r25, 0x01	; 1
    6bfc:	0e 94 90 33 	call	0x6720	; 0x6720 <u8g_FirstPage>
        uint8_t hour_placing = (50-(data.h_numbers*10));
        u8g_SetFont(&oled_display, u8g_font_courB24);
        u8g_DrawStr(&oled_display, hour_placing, 27, data.ascii_hour);

        // Printing minutes left
        uint8_t min_placing = (48-(data.m_numbers*8));
    6c00:	0f 2e       	mov	r0, r31
    6c02:	f6 e0       	ldi	r31, 0x06	; 6
    6c04:	ef 2e       	mov	r14, r31
    6c06:	f1 2c       	mov	r15, r1
    6c08:	f0 2d       	mov	r31, r0
    u8g_FirstPage(&oled_display);
    do
    {
        // Screen = 128x64
        // Printing hour left
        uint8_t hour_placing = (50-(data.h_numbers*10));
    6c0a:	6c 96       	adiw	r28, 0x1c	; 28
    6c0c:	1f ad       	ldd	r17, Y+63	; 0x3f
    6c0e:	6c 97       	sbiw	r28, 0x1c	; 28
    6c10:	11 0f       	add	r17, r17
    6c12:	81 2f       	mov	r24, r17
    6c14:	88 0f       	add	r24, r24
    6c16:	88 0f       	add	r24, r24
    6c18:	18 0f       	add	r17, r24
    6c1a:	11 95       	neg	r17
    6c1c:	1e 5c       	subi	r17, 0xCE	; 206
        u8g_SetFont(&oled_display, u8g_font_courB24);
    6c1e:	62 e1       	ldi	r22, 0x12	; 18
    6c20:	71 e0       	ldi	r23, 0x01	; 1
    6c22:	8f ec       	ldi	r24, 0xCF	; 207
    6c24:	91 e0       	ldi	r25, 0x01	; 1
    6c26:	0e 94 6d 32 	call	0x64da	; 0x64da <u8g_SetFont>
        u8g_DrawStr(&oled_display, hour_placing, 27, data.ascii_hour);
    6c2a:	9e 01       	movw	r18, r28
    6c2c:	21 5e       	subi	r18, 0xE1	; 225
    6c2e:	3f 4f       	sbci	r19, 0xFF	; 255
    6c30:	4b e1       	ldi	r20, 0x1B	; 27
    6c32:	61 2f       	mov	r22, r17
    6c34:	8f ec       	ldi	r24, 0xCF	; 207
    6c36:	91 e0       	ldi	r25, 0x01	; 1
    6c38:	0e 94 e1 31 	call	0x63c2	; 0x63c2 <u8g_DrawStr>

        // Printing minutes left
        uint8_t min_placing = (48-(data.m_numbers*8));
    6c3c:	6d 96       	adiw	r28, 0x1d	; 29
    6c3e:	8f ad       	ldd	r24, Y+63	; 0x3f
    6c40:	6d 97       	sbiw	r28, 0x1d	; 29
    6c42:	b7 01       	movw	r22, r14
    6c44:	68 1b       	sub	r22, r24
    6c46:	71 09       	sbc	r23, r1
    6c48:	16 2f       	mov	r17, r22
    6c4a:	11 0f       	add	r17, r17
    6c4c:	11 0f       	add	r17, r17
    6c4e:	11 0f       	add	r17, r17
        u8g_SetFont(&oled_display, u8g_font_courB14);
    6c50:	68 e1       	ldi	r22, 0x18	; 24
    6c52:	7a e2       	ldi	r23, 0x2A	; 42
    6c54:	8f ec       	ldi	r24, 0xCF	; 207
    6c56:	91 e0       	ldi	r25, 0x01	; 1
    6c58:	0e 94 6d 32 	call	0x64da	; 0x64da <u8g_SetFont>
        u8g_DrawStr(&oled_display, min_placing, 45, data.ascii_minutes);
    6c5c:	9e 01       	movw	r18, r28
    6c5e:	23 5c       	subi	r18, 0xC3	; 195
    6c60:	3f 4f       	sbci	r19, 0xFF	; 255
    6c62:	4d e2       	ldi	r20, 0x2D	; 45
    6c64:	61 2f       	mov	r22, r17
    6c66:	8f ec       	ldi	r24, 0xCF	; 207
    6c68:	91 e0       	ldi	r25, 0x01	; 1
    6c6a:	0e 94 e1 31 	call	0x63c2	; 0x63c2 <u8g_DrawStr>

        // Printing "time left"
        u8g_SetFont(&oled_display, u8g_font_courB10);
    6c6e:	68 ec       	ldi	r22, 0xC8	; 200
    6c70:	7c e3       	ldi	r23, 0x3C	; 60
    6c72:	8f ec       	ldi	r24, 0xCF	; 207
    6c74:	91 e0       	ldi	r25, 0x01	; 1
    6c76:	0e 94 6d 32 	call	0x64da	; 0x64da <u8g_SetFont>
        u8g_DrawStr(&oled_display, 22, 60, "time left");
    6c7a:	22 e4       	ldi	r18, 0x42	; 66
    6c7c:	31 e0       	ldi	r19, 0x01	; 1
    6c7e:	4c e3       	ldi	r20, 0x3C	; 60
    6c80:	66 e1       	ldi	r22, 0x16	; 22
    6c82:	8f ec       	ldi	r24, 0xCF	; 207
    6c84:	91 e0       	ldi	r25, 0x01	; 1
    6c86:	0e 94 e1 31 	call	0x63c2	; 0x63c2 <u8g_DrawStr>

        // Printing the voltage
        u8g_SetFont(&oled_display, u8g_font_4x6);
    6c8a:	6b e4       	ldi	r22, 0x4B	; 75
    6c8c:	72 e5       	ldi	r23, 0x52	; 82
    6c8e:	8f ec       	ldi	r24, 0xCF	; 207
    6c90:	91 e0       	ldi	r25, 0x01	; 1
    6c92:	0e 94 6d 32 	call	0x64da	; 0x64da <u8g_SetFont>
        u8g_DrawStr(&oled_display, 104, 10, data.ascii_volts);
    6c96:	9e 01       	movw	r18, r28
    6c98:	2f 5f       	subi	r18, 0xFF	; 255
    6c9a:	3f 4f       	sbci	r19, 0xFF	; 255
    6c9c:	4a e0       	ldi	r20, 0x0A	; 10
    6c9e:	68 e6       	ldi	r22, 0x68	; 104
    6ca0:	8f ec       	ldi	r24, 0xCF	; 207
    6ca2:	91 e0       	ldi	r25, 0x01	; 1
    6ca4:	0e 94 e1 31 	call	0x63c2	; 0x63c2 <u8g_DrawStr>

    } while ( u8g_NextPage(&oled_display) );
    6ca8:	8f ec       	ldi	r24, 0xCF	; 207
    6caa:	91 e0       	ldi	r25, 0x01	; 1
    6cac:	0e 94 96 33 	call	0x672c	; 0x672c <u8g_NextPage>
    6cb0:	81 11       	cpse	r24, r1
    6cb2:	ab cf       	rjmp	.-170    	; 0x6c0a <OLED_printtime+0x9c>

}
    6cb4:	cc 53       	subi	r28, 0x3C	; 60
    6cb6:	df 4f       	sbci	r29, 0xFF	; 255
    6cb8:	0f b6       	in	r0, 0x3f	; 63
    6cba:	f8 94       	cli
    6cbc:	de bf       	out	0x3e, r29	; 62
    6cbe:	0f be       	out	0x3f, r0	; 63
    6cc0:	cd bf       	out	0x3d, r28	; 61
    6cc2:	df 91       	pop	r29
    6cc4:	cf 91       	pop	r28
    6cc6:	1f 91       	pop	r17
    6cc8:	ff 90       	pop	r15
    6cca:	ef 90       	pop	r14
    6ccc:	08 95       	ret

00006cce <main>:
uint16_t Calculate_time_left(uint8_t volts);

extern u8g_t oled_display;

int main(void)
{
    6cce:	cf 93       	push	r28
    6cd0:	df 93       	push	r29
    6cd2:	cd b7       	in	r28, 0x3d	; 61
    6cd4:	de b7       	in	r29, 0x3e	; 62
    6cd6:	c4 5c       	subi	r28, 0xC4	; 196
    6cd8:	d1 09       	sbc	r29, r1
    6cda:	0f b6       	in	r0, 0x3f	; 63
    6cdc:	f8 94       	cli
    6cde:	de bf       	out	0x3e, r29	; 62
    6ce0:	0f be       	out	0x3f, r0	; 63
    6ce2:	cd bf       	out	0x3d, r28	; 61
    hardware_init();
    6ce4:	0e 94 71 35 	call	0x6ae2	; 0x6ae2 <hardware_init>
    data_struct data;

    welcome_message();
    6ce8:	0e 94 69 2c 	call	0x58d2	; 0x58d2 <welcome_message>
	#else
		//round up by default
		__ticks_dc = (uint32_t)(ceil(fabs(__tmp)));
	#endif

	__builtin_avr_delay_cycles(__ticks_dc);
    6cec:	2f ef       	ldi	r18, 0xFF	; 255
    6cee:	87 ea       	ldi	r24, 0xA7	; 167
    6cf0:	91 e6       	ldi	r25, 0x61	; 97
    6cf2:	21 50       	subi	r18, 0x01	; 1
    6cf4:	80 40       	sbci	r24, 0x00	; 0
    6cf6:	90 40       	sbci	r25, 0x00	; 0
    6cf8:	e1 f7       	brne	.-8      	; 0x6cf2 <main+0x24>
    6cfa:	00 c0       	rjmp	.+0      	; 0x6cfc <main+0x2e>
    6cfc:	00 00       	nop
    _delay_ms(4000);
    OLED_clrscreen();
    6cfe:	0e 94 8e 2d 	call	0x5b1c	; 0x5b1c <OLED_clrscreen>
    6d02:	2f ef       	ldi	r18, 0xFF	; 255
    6d04:	83 ed       	ldi	r24, 0xD3	; 211
    6d06:	90 e3       	ldi	r25, 0x30	; 48
    6d08:	21 50       	subi	r18, 0x01	; 1
    6d0a:	80 40       	sbci	r24, 0x00	; 0
    6d0c:	90 40       	sbci	r25, 0x00	; 0
    6d0e:	e1 f7       	brne	.-8      	; 0x6d08 <main+0x3a>
    6d10:	00 c0       	rjmp	.+0      	; 0x6d12 <main+0x44>
    6d12:	00 00       	nop
    _delay_ms(2000);
    OLED_Connectmsg();
    6d14:	0e 94 9e 2c 	call	0x593c	; 0x593c <OLED_Connectmsg>
    6d18:	2f ef       	ldi	r18, 0xFF	; 255
    6d1a:	83 ed       	ldi	r24, 0xD3	; 211
    6d1c:	90 e3       	ldi	r25, 0x30	; 48
    6d1e:	21 50       	subi	r18, 0x01	; 1
    6d20:	80 40       	sbci	r24, 0x00	; 0
    6d22:	90 40       	sbci	r25, 0x00	; 0
    6d24:	e1 f7       	brne	.-8      	; 0x6d1e <main+0x50>
    6d26:	00 c0       	rjmp	.+0      	; 0x6d28 <main+0x5a>
    6d28:	00 00       	nop
    _delay_ms(2000);
    OLED_clrscreen();
    6d2a:	0e 94 8e 2d 	call	0x5b1c	; 0x5b1c <OLED_clrscreen>
    6d2e:	2f ef       	ldi	r18, 0xFF	; 255
    6d30:	83 ed       	ldi	r24, 0xD3	; 211
    6d32:	90 e3       	ldi	r25, 0x30	; 48
    6d34:	21 50       	subi	r18, 0x01	; 1
    6d36:	80 40       	sbci	r24, 0x00	; 0
    6d38:	90 40       	sbci	r25, 0x00	; 0
    6d3a:	e1 f7       	brne	.-8      	; 0x6d34 <main+0x66>
    6d3c:	00 c0       	rjmp	.+0      	; 0x6d3e <main+0x70>
    6d3e:	00 00       	nop
    _delay_ms(2000);

    Calculate_voltage();
    6d40:	ce 01       	movw	r24, r28
    6d42:	8d 59       	subi	r24, 0x9D	; 157
    6d44:	9f 4f       	sbci	r25, 0xFF	; 255
    6d46:	0e 94 8c 35 	call	0x6b18	; 0x6b18 <Calculate_voltage>

    data.volts = 125;
    data.time_left = 135;
    6d4a:	0f 2e       	mov	r0, r31
    6d4c:	f7 e8       	ldi	r31, 0x87	; 135
    6d4e:	ef 2e       	mov	r14, r31
    6d50:	f1 2c       	mov	r15, r1
    6d52:	f0 2d       	mov	r31, r0
    OLED_clrscreen();
    _delay_ms(2000);

    Calculate_voltage();

    data.volts = 125;
    6d54:	0d e7       	ldi	r16, 0x7D	; 125
    6d56:	10 e0       	ldi	r17, 0x00	; 0
    data.time_left = 135;

    /* Replace with your application code */
    while (1) 
    {
        OLED_printtime(data);
    6d58:	0f 2e       	mov	r0, r31
    6d5a:	f2 e6       	ldi	r31, 0x62	; 98
    6d5c:	df 2e       	mov	r13, r31
    6d5e:	f0 2d       	mov	r31, r0
    6d60:	a1 96       	adiw	r28, 0x21	; 33
    6d62:	1f af       	std	Y+63, r17	; 0x3f
    6d64:	0e af       	std	Y+62, r16	; 0x3e
    6d66:	a1 97       	sbiw	r28, 0x21	; 33
    6d68:	a3 96       	adiw	r28, 0x23	; 35
    6d6a:	ff ae       	std	Y+63, r15	; 0x3f
    6d6c:	ee ae       	std	Y+62, r14	; 0x3e
    6d6e:	a3 97       	sbiw	r28, 0x23	; 35
    6d70:	8d b7       	in	r24, 0x3d	; 61
    6d72:	9e b7       	in	r25, 0x3e	; 62
    6d74:	82 56       	subi	r24, 0x62	; 98
    6d76:	91 09       	sbc	r25, r1
    6d78:	0f b6       	in	r0, 0x3f	; 63
    6d7a:	f8 94       	cli
    6d7c:	9e bf       	out	0x3e, r25	; 62
    6d7e:	0f be       	out	0x3f, r0	; 63
    6d80:	8d bf       	out	0x3d, r24	; 61
    6d82:	ad b7       	in	r26, 0x3d	; 61
    6d84:	be b7       	in	r27, 0x3e	; 62
    6d86:	11 96       	adiw	r26, 0x01	; 1
    6d88:	fe 01       	movw	r30, r28
    6d8a:	31 96       	adiw	r30, 0x01	; 1
    6d8c:	8d 2d       	mov	r24, r13
    6d8e:	01 90       	ld	r0, Z+
    6d90:	0d 92       	st	X+, r0
    6d92:	8a 95       	dec	r24
    6d94:	e1 f7       	brne	.-8      	; 0x6d8e <main+0xc0>
    6d96:	0e 94 b7 35 	call	0x6b6e	; 0x6b6e <OLED_printtime>
        data.volts -= 1;
    6d9a:	01 50       	subi	r16, 0x01	; 1
    6d9c:	11 09       	sbc	r17, r1
        data.time_left -= 10;
    6d9e:	9a e0       	ldi	r25, 0x0A	; 10
    6da0:	e9 1a       	sub	r14, r25
    6da2:	f1 08       	sbc	r15, r1
    6da4:	2f ef       	ldi	r18, 0xFF	; 255
    6da6:	8d e3       	ldi	r24, 0x3D	; 61
    6da8:	99 e4       	ldi	r25, 0x49	; 73
    6daa:	21 50       	subi	r18, 0x01	; 1
    6dac:	80 40       	sbci	r24, 0x00	; 0
    6dae:	90 40       	sbci	r25, 0x00	; 0
    6db0:	e1 f7       	brne	.-8      	; 0x6daa <main+0xdc>
    6db2:	00 c0       	rjmp	.+0      	; 0x6db4 <main+0xe6>
    6db4:	00 00       	nop
    6db6:	0f b6       	in	r0, 0x3f	; 63
    6db8:	f8 94       	cli
    6dba:	de bf       	out	0x3e, r29	; 62
    6dbc:	0f be       	out	0x3f, r0	; 63
    6dbe:	cd bf       	out	0x3d, r28	; 61
    6dc0:	cf cf       	rjmp	.-98     	; 0x6d60 <main+0x92>

00006dc2 <__udivmodsi4>:
    6dc2:	a1 e2       	ldi	r26, 0x21	; 33
    6dc4:	1a 2e       	mov	r1, r26
    6dc6:	aa 1b       	sub	r26, r26
    6dc8:	bb 1b       	sub	r27, r27
    6dca:	fd 01       	movw	r30, r26
    6dcc:	0d c0       	rjmp	.+26     	; 0x6de8 <__udivmodsi4_ep>

00006dce <__udivmodsi4_loop>:
    6dce:	aa 1f       	adc	r26, r26
    6dd0:	bb 1f       	adc	r27, r27
    6dd2:	ee 1f       	adc	r30, r30
    6dd4:	ff 1f       	adc	r31, r31
    6dd6:	a2 17       	cp	r26, r18
    6dd8:	b3 07       	cpc	r27, r19
    6dda:	e4 07       	cpc	r30, r20
    6ddc:	f5 07       	cpc	r31, r21
    6dde:	20 f0       	brcs	.+8      	; 0x6de8 <__udivmodsi4_ep>
    6de0:	a2 1b       	sub	r26, r18
    6de2:	b3 0b       	sbc	r27, r19
    6de4:	e4 0b       	sbc	r30, r20
    6de6:	f5 0b       	sbc	r31, r21

00006de8 <__udivmodsi4_ep>:
    6de8:	66 1f       	adc	r22, r22
    6dea:	77 1f       	adc	r23, r23
    6dec:	88 1f       	adc	r24, r24
    6dee:	99 1f       	adc	r25, r25
    6df0:	1a 94       	dec	r1
    6df2:	69 f7       	brne	.-38     	; 0x6dce <__udivmodsi4_loop>
    6df4:	60 95       	com	r22
    6df6:	70 95       	com	r23
    6df8:	80 95       	com	r24
    6dfa:	90 95       	com	r25
    6dfc:	9b 01       	movw	r18, r22
    6dfe:	ac 01       	movw	r20, r24
    6e00:	bd 01       	movw	r22, r26
    6e02:	cf 01       	movw	r24, r30
    6e04:	08 95       	ret

00006e06 <__divmodsi4>:
    6e06:	05 2e       	mov	r0, r21
    6e08:	97 fb       	bst	r25, 7
    6e0a:	1e f4       	brtc	.+6      	; 0x6e12 <__divmodsi4+0xc>
    6e0c:	00 94       	com	r0
    6e0e:	0e 94 1a 37 	call	0x6e34	; 0x6e34 <__negsi2>
    6e12:	57 fd       	sbrc	r21, 7
    6e14:	07 d0       	rcall	.+14     	; 0x6e24 <__divmodsi4_neg2>
    6e16:	0e 94 e1 36 	call	0x6dc2	; 0x6dc2 <__udivmodsi4>
    6e1a:	07 fc       	sbrc	r0, 7
    6e1c:	03 d0       	rcall	.+6      	; 0x6e24 <__divmodsi4_neg2>
    6e1e:	4e f4       	brtc	.+18     	; 0x6e32 <__divmodsi4_exit>
    6e20:	0c 94 1a 37 	jmp	0x6e34	; 0x6e34 <__negsi2>

00006e24 <__divmodsi4_neg2>:
    6e24:	50 95       	com	r21
    6e26:	40 95       	com	r20
    6e28:	30 95       	com	r19
    6e2a:	21 95       	neg	r18
    6e2c:	3f 4f       	sbci	r19, 0xFF	; 255
    6e2e:	4f 4f       	sbci	r20, 0xFF	; 255
    6e30:	5f 4f       	sbci	r21, 0xFF	; 255

00006e32 <__divmodsi4_exit>:
    6e32:	08 95       	ret

00006e34 <__negsi2>:
    6e34:	90 95       	com	r25
    6e36:	80 95       	com	r24
    6e38:	70 95       	com	r23
    6e3a:	61 95       	neg	r22
    6e3c:	7f 4f       	sbci	r23, 0xFF	; 255
    6e3e:	8f 4f       	sbci	r24, 0xFF	; 255
    6e40:	9f 4f       	sbci	r25, 0xFF	; 255
    6e42:	08 95       	ret

00006e44 <__tablejump2__>:
    6e44:	ee 0f       	add	r30, r30
    6e46:	ff 1f       	adc	r31, r31
    6e48:	05 90       	lpm	r0, Z+
    6e4a:	f4 91       	lpm	r31, Z
    6e4c:	e0 2d       	mov	r30, r0
    6e4e:	09 94       	ijmp

00006e50 <__umulhisi3>:
    6e50:	a2 9f       	mul	r26, r18
    6e52:	b0 01       	movw	r22, r0
    6e54:	b3 9f       	mul	r27, r19
    6e56:	c0 01       	movw	r24, r0
    6e58:	a3 9f       	mul	r26, r19
    6e5a:	70 0d       	add	r23, r0
    6e5c:	81 1d       	adc	r24, r1
    6e5e:	11 24       	eor	r1, r1
    6e60:	91 1d       	adc	r25, r1
    6e62:	b2 9f       	mul	r27, r18
    6e64:	70 0d       	add	r23, r0
    6e66:	81 1d       	adc	r24, r1
    6e68:	11 24       	eor	r1, r1
    6e6a:	91 1d       	adc	r25, r1
    6e6c:	08 95       	ret

00006e6e <__itoa_ncheck>:
    6e6e:	bb 27       	eor	r27, r27
    6e70:	4a 30       	cpi	r20, 0x0A	; 10
    6e72:	31 f4       	brne	.+12     	; 0x6e80 <__itoa_ncheck+0x12>
    6e74:	99 23       	and	r25, r25
    6e76:	22 f4       	brpl	.+8      	; 0x6e80 <__itoa_ncheck+0x12>
    6e78:	bd e2       	ldi	r27, 0x2D	; 45
    6e7a:	90 95       	com	r25
    6e7c:	81 95       	neg	r24
    6e7e:	9f 4f       	sbci	r25, 0xFF	; 255
    6e80:	0c 94 43 37 	jmp	0x6e86	; 0x6e86 <__utoa_common>

00006e84 <__utoa_ncheck>:
    6e84:	bb 27       	eor	r27, r27

00006e86 <__utoa_common>:
    6e86:	fb 01       	movw	r30, r22
    6e88:	55 27       	eor	r21, r21
    6e8a:	aa 27       	eor	r26, r26
    6e8c:	88 0f       	add	r24, r24
    6e8e:	99 1f       	adc	r25, r25
    6e90:	aa 1f       	adc	r26, r26
    6e92:	a4 17       	cp	r26, r20
    6e94:	10 f0       	brcs	.+4      	; 0x6e9a <__utoa_common+0x14>
    6e96:	a4 1b       	sub	r26, r20
    6e98:	83 95       	inc	r24
    6e9a:	50 51       	subi	r21, 0x10	; 16
    6e9c:	b9 f7       	brne	.-18     	; 0x6e8c <__utoa_common+0x6>
    6e9e:	a0 5d       	subi	r26, 0xD0	; 208
    6ea0:	aa 33       	cpi	r26, 0x3A	; 58
    6ea2:	08 f0       	brcs	.+2      	; 0x6ea6 <__utoa_common+0x20>
    6ea4:	a9 5d       	subi	r26, 0xD9	; 217
    6ea6:	a1 93       	st	Z+, r26
    6ea8:	00 97       	sbiw	r24, 0x00	; 0
    6eaa:	79 f7       	brne	.-34     	; 0x6e8a <__utoa_common+0x4>
    6eac:	b1 11       	cpse	r27, r1
    6eae:	b1 93       	st	Z+, r27
    6eb0:	11 92       	st	Z+, r1
    6eb2:	cb 01       	movw	r24, r22
    6eb4:	0c 94 5c 37 	jmp	0x6eb8	; 0x6eb8 <strrev>

00006eb8 <strrev>:
    6eb8:	dc 01       	movw	r26, r24
    6eba:	fc 01       	movw	r30, r24
    6ebc:	67 2f       	mov	r22, r23
    6ebe:	71 91       	ld	r23, Z+
    6ec0:	77 23       	and	r23, r23
    6ec2:	e1 f7       	brne	.-8      	; 0x6ebc <strrev+0x4>
    6ec4:	32 97       	sbiw	r30, 0x02	; 2
    6ec6:	04 c0       	rjmp	.+8      	; 0x6ed0 <strrev+0x18>
    6ec8:	7c 91       	ld	r23, X
    6eca:	6d 93       	st	X+, r22
    6ecc:	70 83       	st	Z, r23
    6ece:	62 91       	ld	r22, -Z
    6ed0:	ae 17       	cp	r26, r30
    6ed2:	bf 07       	cpc	r27, r31
    6ed4:	c8 f3       	brcs	.-14     	; 0x6ec8 <strrev+0x10>
    6ed6:	08 95       	ret

00006ed8 <_exit>:
    6ed8:	f8 94       	cli

00006eda <__stop_program>:
    6eda:	ff cf       	rjmp	.-2      	; 0x6eda <__stop_program>
